Archive member included to satisfy reference by file (symbol)

c:/rt-threadstudio/repo/extract/toolchain_support_packages/arm/gnu_tools_for_arm_embedded_processors/5.4.1/bin/../lib/gcc/arm-none-eabi/5.4.1/../../../../arm-none-eabi/lib/armv7e-m/fpu\libc.a(lib_a-atoi.o)
                              ./rt-thread/components/finsh/msh_file.o (atoi)
c:/rt-threadstudio/repo/extract/toolchain_support_packages/arm/gnu_tools_for_arm_embedded_processors/5.4.1/bin/../lib/gcc/arm-none-eabi/5.4.1/../../../../arm-none-eabi/lib/armv7e-m/fpu\libc.a(lib_a-exit.o)
                              c:/rt-threadstudio/repo/extract/toolchain_support_packages/arm/gnu_tools_for_arm_embedded_processors/5.4.1/bin/../lib/gcc/arm-none-eabi/5.4.1/../../../../arm-none-eabi/lib/armv7e-m/fpu/crt0.o (exit)
c:/rt-threadstudio/repo/extract/toolchain_support_packages/arm/gnu_tools_for_arm_embedded_processors/5.4.1/bin/../lib/gcc/arm-none-eabi/5.4.1/../../../../arm-none-eabi/lib/armv7e-m/fpu\libc.a(lib_a-impure.o)
                              c:/rt-threadstudio/repo/extract/toolchain_support_packages/arm/gnu_tools_for_arm_embedded_processors/5.4.1/bin/../lib/gcc/arm-none-eabi/5.4.1/../../../../arm-none-eabi/lib/armv7e-m/fpu\libc.a(lib_a-exit.o) (_global_impure_ptr)
c:/rt-threadstudio/repo/extract/toolchain_support_packages/arm/gnu_tools_for_arm_embedded_processors/5.4.1/bin/../lib/gcc/arm-none-eabi/5.4.1/../../../../arm-none-eabi/lib/armv7e-m/fpu\libc.a(lib_a-locale.o)
                              ./rt-thread/components/libc/compilers/common/cstring.o (__locale_ctype_ptr)
c:/rt-threadstudio/repo/extract/toolchain_support_packages/arm/gnu_tools_for_arm_embedded_processors/5.4.1/bin/../lib/gcc/arm-none-eabi/5.4.1/../../../../arm-none-eabi/lib/armv7e-m/fpu\libc.a(lib_a-malloc.o)
                              ./rt-thread/components/libc/compilers/common/cstring.o (malloc)
c:/rt-threadstudio/repo/extract/toolchain_support_packages/arm/gnu_tools_for_arm_embedded_processors/5.4.1/bin/../lib/gcc/arm-none-eabi/5.4.1/../../../../arm-none-eabi/lib/armv7e-m/fpu\libc.a(lib_a-mbtowc_r.o)
                              c:/rt-threadstudio/repo/extract/toolchain_support_packages/arm/gnu_tools_for_arm_embedded_processors/5.4.1/bin/../lib/gcc/arm-none-eabi/5.4.1/../../../../arm-none-eabi/lib/armv7e-m/fpu\libc.a(lib_a-locale.o) (__ascii_mbtowc)
c:/rt-threadstudio/repo/extract/toolchain_support_packages/arm/gnu_tools_for_arm_embedded_processors/5.4.1/bin/../lib/gcc/arm-none-eabi/5.4.1/../../../../arm-none-eabi/lib/armv7e-m/fpu\libc.a(lib_a-memcmp.o)
                              ./rt-thread/components/finsh/shell.o (memcmp)
c:/rt-threadstudio/repo/extract/toolchain_support_packages/arm/gnu_tools_for_arm_embedded_processors/5.4.1/bin/../lib/gcc/arm-none-eabi/5.4.1/../../../../arm-none-eabi/lib/armv7e-m/fpu\libc.a(lib_a-memset.o)
                              c:/rt-threadstudio/repo/extract/toolchain_support_packages/arm/gnu_tools_for_arm_embedded_processors/5.4.1/bin/../lib/gcc/arm-none-eabi/5.4.1/../../../../arm-none-eabi/lib/armv7e-m/fpu/crt0.o (memset)
c:/rt-threadstudio/repo/extract/toolchain_support_packages/arm/gnu_tools_for_arm_embedded_processors/5.4.1/bin/../lib/gcc/arm-none-eabi/5.4.1/../../../../arm-none-eabi/lib/armv7e-m/fpu\libc.a(lib_a-strchr.o)
                              ./rt-thread/components/libc/compilers/common/cstring.o (strchr)
c:/rt-threadstudio/repo/extract/toolchain_support_packages/arm/gnu_tools_for_arm_embedded_processors/5.4.1/bin/../lib/gcc/arm-none-eabi/5.4.1/../../../../arm-none-eabi/lib/armv7e-m/fpu\libc.a(lib_a-strcmp.o)
                              ./rt-thread/components/finsh/cmd.o (strcmp)
c:/rt-threadstudio/repo/extract/toolchain_support_packages/arm/gnu_tools_for_arm_embedded_processors/5.4.1/bin/../lib/gcc/arm-none-eabi/5.4.1/../../../../arm-none-eabi/lib/armv7e-m/fpu\libc.a(lib_a-strcpy.o)
                              ./rt-thread/components/libc/compilers/common/cstring.o (strcpy)
c:/rt-threadstudio/repo/extract/toolchain_support_packages/arm/gnu_tools_for_arm_embedded_processors/5.4.1/bin/../lib/gcc/arm-none-eabi/5.4.1/../../../../arm-none-eabi/lib/armv7e-m/fpu\libc.a(lib_a-strlen.o)
                              ./rt-thread/src/kservice.o (strlen)
c:/rt-threadstudio/repo/extract/toolchain_support_packages/arm/gnu_tools_for_arm_embedded_processors/5.4.1/bin/../lib/gcc/arm-none-eabi/5.4.1/../../../../arm-none-eabi/lib/armv7e-m/fpu\libc.a(lib_a-strncat.o)
                              ./rt-thread/components/drivers/misc/pin.o (strncat)
c:/rt-threadstudio/repo/extract/toolchain_support_packages/arm/gnu_tools_for_arm_embedded_processors/5.4.1/bin/../lib/gcc/arm-none-eabi/5.4.1/../../../../arm-none-eabi/lib/armv7e-m/fpu\libc.a(lib_a-strncmp.o)
                              ./rt-thread/src/object.o (strncmp)
c:/rt-threadstudio/repo/extract/toolchain_support_packages/arm/gnu_tools_for_arm_embedded_processors/5.4.1/bin/../lib/gcc/arm-none-eabi/5.4.1/../../../../arm-none-eabi/lib/armv7e-m/fpu\libc.a(lib_a-strncpy.o)
                              ./rt-thread/src/object.o (strncpy)
c:/rt-threadstudio/repo/extract/toolchain_support_packages/arm/gnu_tools_for_arm_embedded_processors/5.4.1/bin/../lib/gcc/arm-none-eabi/5.4.1/../../../../arm-none-eabi/lib/armv7e-m/fpu\libc.a(lib_a-strrchr.o)
                              ./rt-thread/components/libc/compilers/common/cstring.o (strrchr)
c:/rt-threadstudio/repo/extract/toolchain_support_packages/arm/gnu_tools_for_arm_embedded_processors/5.4.1/bin/../lib/gcc/arm-none-eabi/5.4.1/../../../../arm-none-eabi/lib/armv7e-m/fpu\libc.a(lib_a-strstr.o)
                              ./rt-thread/components/finsh/msh_file.o (strstr)
c:/rt-threadstudio/repo/extract/toolchain_support_packages/arm/gnu_tools_for_arm_embedded_processors/5.4.1/bin/../lib/gcc/arm-none-eabi/5.4.1/../../../../arm-none-eabi/lib/armv7e-m/fpu\libc.a(lib_a-strtol.o)
                              c:/rt-threadstudio/repo/extract/toolchain_support_packages/arm/gnu_tools_for_arm_embedded_processors/5.4.1/bin/../lib/gcc/arm-none-eabi/5.4.1/../../../../arm-none-eabi/lib/armv7e-m/fpu\libc.a(lib_a-atoi.o) (_strtol_r)
c:/rt-threadstudio/repo/extract/toolchain_support_packages/arm/gnu_tools_for_arm_embedded_processors/5.4.1/bin/../lib/gcc/arm-none-eabi/5.4.1/../../../../arm-none-eabi/lib/armv7e-m/fpu\libc.a(lib_a-wctomb_r.o)
                              c:/rt-threadstudio/repo/extract/toolchain_support_packages/arm/gnu_tools_for_arm_embedded_processors/5.4.1/bin/../lib/gcc/arm-none-eabi/5.4.1/../../../../arm-none-eabi/lib/armv7e-m/fpu\libc.a(lib_a-locale.o) (__ascii_wctomb)
c:/rt-threadstudio/repo/extract/toolchain_support_packages/arm/gnu_tools_for_arm_embedded_processors/5.4.1/bin/../lib/gcc/arm-none-eabi/5.4.1/../../../../arm-none-eabi/lib/armv7e-m/fpu\libc.a(lib_a-__call_atexit.o)
                              c:/rt-threadstudio/repo/extract/toolchain_support_packages/arm/gnu_tools_for_arm_embedded_processors/5.4.1/bin/../lib/gcc/arm-none-eabi/5.4.1/../../../../arm-none-eabi/lib/armv7e-m/fpu\libc.a(lib_a-exit.o) (__call_exitprocs)
c:/rt-threadstudio/repo/extract/toolchain_support_packages/arm/gnu_tools_for_arm_embedded_processors/5.4.1/bin/../lib/gcc/arm-none-eabi/5.4.1/../../../../arm-none-eabi/lib/armv7e-m/fpu\libc.a(lib_a-atexit.o)
                              c:/rt-threadstudio/repo/extract/toolchain_support_packages/arm/gnu_tools_for_arm_embedded_processors/5.4.1/bin/../lib/gcc/arm-none-eabi/5.4.1/../../../../arm-none-eabi/lib/armv7e-m/fpu\libc.a(lib_a-__call_atexit.o) (atexit)
c:/rt-threadstudio/repo/extract/toolchain_support_packages/arm/gnu_tools_for_arm_embedded_processors/5.4.1/bin/../lib/gcc/arm-none-eabi/5.4.1/../../../../arm-none-eabi/lib/armv7e-m/fpu\libc.a(lib_a-ctype_.o)
                              c:/rt-threadstudio/repo/extract/toolchain_support_packages/arm/gnu_tools_for_arm_embedded_processors/5.4.1/bin/../lib/gcc/arm-none-eabi/5.4.1/../../../../arm-none-eabi/lib/armv7e-m/fpu\libc.a(lib_a-locale.o) (_ctype_)
c:/rt-threadstudio/repo/extract/toolchain_support_packages/arm/gnu_tools_for_arm_embedded_processors/5.4.1/bin/../lib/gcc/arm-none-eabi/5.4.1/../../../../arm-none-eabi/lib/armv7e-m/fpu\libc.a(lib_a-fini.o)
                              c:/rt-threadstudio/repo/extract/toolchain_support_packages/arm/gnu_tools_for_arm_embedded_processors/5.4.1/bin/../lib/gcc/arm-none-eabi/5.4.1/../../../../arm-none-eabi/lib/armv7e-m/fpu\libc.a(lib_a-__call_atexit.o) (__libc_fini_array)
c:/rt-threadstudio/repo/extract/toolchain_support_packages/arm/gnu_tools_for_arm_embedded_processors/5.4.1/bin/../lib/gcc/arm-none-eabi/5.4.1/../../../../arm-none-eabi/lib/armv7e-m/fpu\libc.a(lib_a-memchr.o)
                              c:/rt-threadstudio/repo/extract/toolchain_support_packages/arm/gnu_tools_for_arm_embedded_processors/5.4.1/bin/../lib/gcc/arm-none-eabi/5.4.1/../../../../arm-none-eabi/lib/armv7e-m/fpu\libc.a(lib_a-strstr.o) (memchr)
c:/rt-threadstudio/repo/extract/toolchain_support_packages/arm/gnu_tools_for_arm_embedded_processors/5.4.1/bin/../lib/gcc/arm-none-eabi/5.4.1/../../../../arm-none-eabi/lib/armv7e-m/fpu\libc.a(lib_a-__atexit.o)
                              c:/rt-threadstudio/repo/extract/toolchain_support_packages/arm/gnu_tools_for_arm_embedded_processors/5.4.1/bin/../lib/gcc/arm-none-eabi/5.4.1/../../../../arm-none-eabi/lib/armv7e-m/fpu\libc.a(lib_a-atexit.o) (__register_exitproc)
c:/rt-threadstudio/repo/extract/toolchain_support_packages/arm/gnu_tools_for_arm_embedded_processors/5.4.1/bin/../lib/gcc/arm-none-eabi/5.4.1/armv7e-m/fpu\libgcc.a(_arm_addsubdf3.o)
                              ./rt-thread/components/libc/compilers/common/ctime.o (__aeabi_i2d)

Allocating common symbols
Common symbol       size              file

rt_interrupt_to_thread
                    0x4               ./rt-thread/libcpu/arm/cortex-m4/cpuport.o
rt_interrupt_from_thread
                    0x4               ./rt-thread/libcpu/arm/cortex-m4/cpuport.o
shell               0x4               ./rt-thread/components/finsh/shell.o
rt_thread_switch_interrupt_flag
                    0x4               ./rt-thread/libcpu/arm/cortex-m4/cpuport.o
rt_thread_priority_table
                    0x100             ./rt-thread/src/scheduler.o
rt_object_put_hook  0x4               ./rt-thread/src/object.o
rt_current_priority
                    0x1               ./rt-thread/src/scheduler.o
filesystem_table    0x40              ./rt-thread/components/dfs/src/dfs.o
rt_assert_hook      0x4               ./rt-thread/src/kservice.o
rt_object_take_hook
                    0x4               ./rt-thread/src/object.o
rt_thread_ready_priority_group
                    0x4               ./rt-thread/src/scheduler.o
filesystem_operation_table
                    0x10              ./rt-thread/components/dfs/src/dfs.o
rt_object_trytake_hook
                    0x4               ./rt-thread/src/object.o

Discarded input sections

 .text          0x00000000        0x0 c:/rt-threadstudio/repo/extract/toolchain_support_packages/arm/gnu_tools_for_arm_embedded_processors/5.4.1/bin/../lib/gcc/arm-none-eabi/5.4.1/armv7e-m/fpu/crti.o
 .data          0x00000000        0x0 c:/rt-threadstudio/repo/extract/toolchain_support_packages/arm/gnu_tools_for_arm_embedded_processors/5.4.1/bin/../lib/gcc/arm-none-eabi/5.4.1/armv7e-m/fpu/crti.o
 .bss           0x00000000        0x0 c:/rt-threadstudio/repo/extract/toolchain_support_packages/arm/gnu_tools_for_arm_embedded_processors/5.4.1/bin/../lib/gcc/arm-none-eabi/5.4.1/armv7e-m/fpu/crti.o
 .text          0x00000000       0x5c c:/rt-threadstudio/repo/extract/toolchain_support_packages/arm/gnu_tools_for_arm_embedded_processors/5.4.1/bin/../lib/gcc/arm-none-eabi/5.4.1/armv7e-m/fpu/crtbegin.o
 .data          0x00000000        0x4 c:/rt-threadstudio/repo/extract/toolchain_support_packages/arm/gnu_tools_for_arm_embedded_processors/5.4.1/bin/../lib/gcc/arm-none-eabi/5.4.1/armv7e-m/fpu/crtbegin.o
 .bss           0x00000000       0x1c c:/rt-threadstudio/repo/extract/toolchain_support_packages/arm/gnu_tools_for_arm_embedded_processors/5.4.1/bin/../lib/gcc/arm-none-eabi/5.4.1/armv7e-m/fpu/crtbegin.o
 .init_array    0x00000000        0x4 c:/rt-threadstudio/repo/extract/toolchain_support_packages/arm/gnu_tools_for_arm_embedded_processors/5.4.1/bin/../lib/gcc/arm-none-eabi/5.4.1/armv7e-m/fpu/crtbegin.o
 .fini_array    0x00000000        0x4 c:/rt-threadstudio/repo/extract/toolchain_support_packages/arm/gnu_tools_for_arm_embedded_processors/5.4.1/bin/../lib/gcc/arm-none-eabi/5.4.1/armv7e-m/fpu/crtbegin.o
 .eh_frame      0x00000000        0x0 c:/rt-threadstudio/repo/extract/toolchain_support_packages/arm/gnu_tools_for_arm_embedded_processors/5.4.1/bin/../lib/gcc/arm-none-eabi/5.4.1/armv7e-m/fpu/crtbegin.o
 .jcr           0x00000000        0x0 c:/rt-threadstudio/repo/extract/toolchain_support_packages/arm/gnu_tools_for_arm_embedded_processors/5.4.1/bin/../lib/gcc/arm-none-eabi/5.4.1/armv7e-m/fpu/crtbegin.o
 .ARM.attributes
                0x00000000       0x34 c:/rt-threadstudio/repo/extract/toolchain_support_packages/arm/gnu_tools_for_arm_embedded_processors/5.4.1/bin/../lib/gcc/arm-none-eabi/5.4.1/armv7e-m/fpu/crtbegin.o
 .text          0x00000000       0x74 c:/rt-threadstudio/repo/extract/toolchain_support_packages/arm/gnu_tools_for_arm_embedded_processors/5.4.1/bin/../lib/gcc/arm-none-eabi/5.4.1/../../../../arm-none-eabi/lib/armv7e-m/fpu/crt0.o
 .data          0x00000000        0x0 c:/rt-threadstudio/repo/extract/toolchain_support_packages/arm/gnu_tools_for_arm_embedded_processors/5.4.1/bin/../lib/gcc/arm-none-eabi/5.4.1/../../../../arm-none-eabi/lib/armv7e-m/fpu/crt0.o
 .bss           0x00000000        0x0 c:/rt-threadstudio/repo/extract/toolchain_support_packages/arm/gnu_tools_for_arm_embedded_processors/5.4.1/bin/../lib/gcc/arm-none-eabi/5.4.1/../../../../arm-none-eabi/lib/armv7e-m/fpu/crt0.o
 .ARM.extab     0x00000000        0x0 c:/rt-threadstudio/repo/extract/toolchain_support_packages/arm/gnu_tools_for_arm_embedded_processors/5.4.1/bin/../lib/gcc/arm-none-eabi/5.4.1/../../../../arm-none-eabi/lib/armv7e-m/fpu/crt0.o
 .ARM.exidx     0x00000000        0x8 c:/rt-threadstudio/repo/extract/toolchain_support_packages/arm/gnu_tools_for_arm_embedded_processors/5.4.1/bin/../lib/gcc/arm-none-eabi/5.4.1/../../../../arm-none-eabi/lib/armv7e-m/fpu/crt0.o
 .ARM.attributes
                0x00000000       0x20 c:/rt-threadstudio/repo/extract/toolchain_support_packages/arm/gnu_tools_for_arm_embedded_processors/5.4.1/bin/../lib/gcc/arm-none-eabi/5.4.1/../../../../arm-none-eabi/lib/armv7e-m/fpu/crt0.o
 .text          0x00000000        0x0 ./rt-thread/src/clock.o
 .data          0x00000000        0x0 ./rt-thread/src/clock.o
 .bss           0x00000000        0x0 ./rt-thread/src/clock.o
 .text.rt_tick_sethook
                0x00000000       0x20 ./rt-thread/src/clock.o
 .text.rt_tick_set
                0x00000000       0x28 ./rt-thread/src/clock.o
 .text.rt_tick_get_millisecond
                0x00000000       0x10 ./rt-thread/src/clock.o
 .text          0x00000000        0x0 ./rt-thread/src/components.o
 .data          0x00000000        0x0 ./rt-thread/src/components.o
 .bss           0x00000000        0x0 ./rt-thread/src/components.o
 .text          0x00000000        0x0 ./rt-thread/src/device.o
 .data          0x00000000        0x0 ./rt-thread/src/device.o
 .bss           0x00000000        0x0 ./rt-thread/src/device.o
 .text.rt_device_unregister
                0x00000000       0x6c ./rt-thread/src/device.o
 .text.rt_device_create
                0x00000000       0x4c ./rt-thread/src/device.o
 .text.rt_device_destroy
                0x00000000       0x70 ./rt-thread/src/device.o
 .text.rt_device_init
                0x00000000       0x74 ./rt-thread/src/device.o
 .text.rt_device_control
                0x00000000       0x68 ./rt-thread/src/device.o
 .text.rt_device_set_tx_complete
                0x00000000       0x54 ./rt-thread/src/device.o
 .rodata.__FUNCTION__.5391
                0x00000000       0x15 ./rt-thread/src/device.o
 .rodata.__FUNCTION__.5404
                0x00000000       0x12 ./rt-thread/src/device.o
 .rodata.__FUNCTION__.5409
                0x00000000        0xf ./rt-thread/src/device.o
 .rodata.__FUNCTION__.5440
                0x00000000       0x12 ./rt-thread/src/device.o
 .rodata.__FUNCTION__.5454
                0x00000000       0x1a ./rt-thread/src/device.o
 .text          0x00000000        0x0 ./rt-thread/src/idle.o
 .data          0x00000000        0x0 ./rt-thread/src/idle.o
 .bss           0x00000000        0x0 ./rt-thread/src/idle.o
 .text.rt_thread_idle_sethook
                0x00000000       0x58 ./rt-thread/src/idle.o
 .text.rt_thread_idle_delhook
                0x00000000       0x58 ./rt-thread/src/idle.o
 .text.rt_thread_idle_gethandler
                0x00000000       0x24 ./rt-thread/src/idle.o
 .text          0x00000000        0x0 ./rt-thread/src/ipc.o
 .data          0x00000000        0x0 ./rt-thread/src/ipc.o
 .bss           0x00000000        0x0 ./rt-thread/src/ipc.o
 .text._ipc_list_resume_all
                0x00000000       0x44 ./rt-thread/src/ipc.o
 .text.rt_sem_detach
                0x00000000       0x7c ./rt-thread/src/ipc.o
 .text.rt_sem_create
                0x00000000       0xac ./rt-thread/src/ipc.o
 .text.rt_sem_delete
                0x00000000       0xac ./rt-thread/src/ipc.o
 .text.rt_sem_trytake
                0x00000000       0x1c ./rt-thread/src/ipc.o
 .text.rt_sem_control
                0x00000000       0x80 ./rt-thread/src/ipc.o
 .text.rt_mutex_detach
                0x00000000       0x7c ./rt-thread/src/ipc.o
 .text.rt_mutex_create
                0x00000000       0x88 ./rt-thread/src/ipc.o
 .text.rt_mutex_delete
                0x00000000       0xac ./rt-thread/src/ipc.o
 .text.rt_mutex_trytake
                0x00000000       0x1c ./rt-thread/src/ipc.o
 .text.rt_mutex_control
                0x00000000       0x50 ./rt-thread/src/ipc.o
 .text.rt_event_init
                0x00000000       0x70 ./rt-thread/src/ipc.o
 .text.rt_event_detach
                0x00000000       0x7c ./rt-thread/src/ipc.o
 .text.rt_event_create
                0x00000000       0x90 ./rt-thread/src/ipc.o
 .text.rt_event_delete
                0x00000000       0xac ./rt-thread/src/ipc.o
 .text.rt_event_send
                0x00000000      0x15c ./rt-thread/src/ipc.o
 .text.rt_event_recv
                0x00000000      0x248 ./rt-thread/src/ipc.o
 .text.rt_event_control
                0x00000000       0x7c ./rt-thread/src/ipc.o
 .text.rt_mb_init
                0x00000000       0x94 ./rt-thread/src/ipc.o
 .text.rt_mb_detach
                0x00000000       0x84 ./rt-thread/src/ipc.o
 .text.rt_mb_create
                0x00000000       0xd8 ./rt-thread/src/ipc.o
 .text.rt_mb_delete
                0x00000000       0xc0 ./rt-thread/src/ipc.o
 .text.rt_mb_send_wait
                0x00000000      0x248 ./rt-thread/src/ipc.o
 .text.rt_mb_send
                0x00000000       0x20 ./rt-thread/src/ipc.o
 .text.rt_mb_urgent
                0x00000000       0xec ./rt-thread/src/ipc.o
 .text.rt_mb_recv
                0x00000000      0x260 ./rt-thread/src/ipc.o
 .text.rt_mb_control
                0x00000000       0x90 ./rt-thread/src/ipc.o
 .text.rt_mq_init
                0x00000000       0xf4 ./rt-thread/src/ipc.o
 .text.rt_mq_detach
                0x00000000       0x84 ./rt-thread/src/ipc.o
 .text.rt_mq_create
                0x00000000      0x130 ./rt-thread/src/ipc.o
 .text.rt_mq_delete
                0x00000000       0xc0 ./rt-thread/src/ipc.o
 .text.rt_mq_send_wait
                0x00000000      0x2a4 ./rt-thread/src/ipc.o
 .text.rt_mq_send
                0x00000000       0x24 ./rt-thread/src/ipc.o
 .text.rt_mq_urgent
                0x00000000      0x154 ./rt-thread/src/ipc.o
 .text.rt_mq_recv
                0x00000000      0x2b0 ./rt-thread/src/ipc.o
 .text.rt_mq_control
                0x00000000       0xbc ./rt-thread/src/ipc.o
 .rodata.__FUNCTION__.5503
                0x00000000        0xe ./rt-thread/src/ipc.o
 .rodata.__FUNCTION__.5510
                0x00000000        0xe ./rt-thread/src/ipc.o
 .rodata.__FUNCTION__.5515
                0x00000000        0xe ./rt-thread/src/ipc.o
 .rodata.__FUNCTION__.5542
                0x00000000        0xf ./rt-thread/src/ipc.o
 .rodata.__FUNCTION__.5553
                0x00000000       0x10 ./rt-thread/src/ipc.o
 .rodata.__FUNCTION__.5560
                0x00000000       0x10 ./rt-thread/src/ipc.o
 .rodata.__FUNCTION__.5564
                0x00000000       0x10 ./rt-thread/src/ipc.o
 .rodata.__FUNCTION__.5593
                0x00000000       0x11 ./rt-thread/src/ipc.o
 .rodata.__FUNCTION__.5599
                0x00000000        0xe ./rt-thread/src/ipc.o
 .rodata.__FUNCTION__.5603
                0x00000000       0x10 ./rt-thread/src/ipc.o
 .rodata.__FUNCTION__.5609
                0x00000000       0x10 ./rt-thread/src/ipc.o
 .rodata.__FUNCTION__.5614
                0x00000000       0x10 ./rt-thread/src/ipc.o
 .rodata.__FUNCTION__.5625
                0x00000000        0xe ./rt-thread/src/ipc.o
 .rodata.__FUNCTION__.5639
                0x00000000        0xe ./rt-thread/src/ipc.o
 .rodata.__FUNCTION__.5649
                0x00000000       0x11 ./rt-thread/src/ipc.o
 .rodata.__FUNCTION__.5657
                0x00000000        0xb ./rt-thread/src/ipc.o
 .rodata.__FUNCTION__.5661
                0x00000000        0xd ./rt-thread/src/ipc.o
 .rodata.__FUNCTION__.5668
                0x00000000        0xd ./rt-thread/src/ipc.o
 .rodata.__FUNCTION__.5673
                0x00000000        0xd ./rt-thread/src/ipc.o
 .rodata.__FUNCTION__.5683
                0x00000000       0x10 ./rt-thread/src/ipc.o
 .rodata.__FUNCTION__.5699
                0x00000000        0xd ./rt-thread/src/ipc.o
 .rodata.__FUNCTION__.5708
                0x00000000        0xb ./rt-thread/src/ipc.o
 .rodata.__FUNCTION__.5721
                0x00000000        0xe ./rt-thread/src/ipc.o
 .rodata.__FUNCTION__.5734
                0x00000000        0xb ./rt-thread/src/ipc.o
 .rodata.__FUNCTION__.5741
                0x00000000        0xd ./rt-thread/src/ipc.o
 .rodata.__FUNCTION__.5751
                0x00000000        0xd ./rt-thread/src/ipc.o
 .rodata.__FUNCTION__.5759
                0x00000000        0xd ./rt-thread/src/ipc.o
 .rodata.__FUNCTION__.5771
                0x00000000       0x10 ./rt-thread/src/ipc.o
 .rodata.__FUNCTION__.5790
                0x00000000        0xd ./rt-thread/src/ipc.o
 .rodata.__FUNCTION__.5801
                0x00000000        0xb ./rt-thread/src/ipc.o
 .rodata.__FUNCTION__.5815
                0x00000000        0xe ./rt-thread/src/ipc.o
 .text          0x00000000        0x0 ./rt-thread/src/irq.o
 .data          0x00000000        0x0 ./rt-thread/src/irq.o
 .bss           0x00000000        0x0 ./rt-thread/src/irq.o
 .text.rt_interrupt_enter_sethook
                0x00000000       0x20 ./rt-thread/src/irq.o
 .text.rt_interrupt_leave_sethook
                0x00000000       0x20 ./rt-thread/src/irq.o
 .text          0x00000000        0x0 ./rt-thread/src/kservice.o
 .data          0x00000000        0x0 ./rt-thread/src/kservice.o
 .bss           0x00000000        0x0 ./rt-thread/src/kservice.o
 .text.rt_hw_us_delay
                0x00000000       0x1c ./rt-thread/src/kservice.o
 .text.rt_get_errno
                0x00000000       0x38 ./rt-thread/src/kservice.o
 .text._rt_errno
                0x00000000       0x34 ./rt-thread/src/kservice.o
 .text.rt_memcmp
                0x00000000       0x58 ./rt-thread/src/kservice.o
 .text.rt_strnlen
                0x00000000       0x40 ./rt-thread/src/kservice.o
 .text.rt_kputs
                0x00000000       0x44 ./rt-thread/src/kservice.o
 .text.rt_malloc_sethook
                0x00000000       0x20 ./rt-thread/src/kservice.o
 .text.rt_free_sethook
                0x00000000       0x20 ./rt-thread/src/kservice.o
 .text.rt_malloc_align
                0x00000000       0x80 ./rt-thread/src/kservice.o
 .text.rt_free_align
                0x00000000       0x28 ./rt-thread/src/kservice.o
 .text.rt_assert_set_hook
                0x00000000       0x20 ./rt-thread/src/kservice.o
 .text          0x00000000        0x0 ./rt-thread/src/mem.o
 .data          0x00000000        0x0 ./rt-thread/src/mem.o
 .bss           0x00000000        0x0 ./rt-thread/src/mem.o
 .text.rt_smem_detach
                0x00000000       0x6c ./rt-thread/src/mem.o
 .rodata.__FUNCTION__.5488
                0x00000000        0xf ./rt-thread/src/mem.o
 .text          0x00000000        0x0 ./rt-thread/src/mempool.o
 .data          0x00000000        0x0 ./rt-thread/src/mempool.o
 .bss           0x00000000        0x0 ./rt-thread/src/mempool.o
 .text.rt_list_init
                0x00000000       0x24 ./rt-thread/src/mempool.o
 .text.rt_list_insert_after
                0x00000000       0x34 ./rt-thread/src/mempool.o
 .text.rt_list_isempty
                0x00000000       0x24 ./rt-thread/src/mempool.o
 .bss.rt_mp_alloc_hook
                0x00000000        0x4 ./rt-thread/src/mempool.o
 .bss.rt_mp_free_hook
                0x00000000        0x4 ./rt-thread/src/mempool.o
 .text.rt_mp_alloc_sethook
                0x00000000       0x20 ./rt-thread/src/mempool.o
 .text.rt_mp_free_sethook
                0x00000000       0x20 ./rt-thread/src/mempool.o
 .rodata        0x00000000      0x14d ./rt-thread/src/mempool.o
 .text.rt_mp_init
                0x00000000      0x118 ./rt-thread/src/mempool.o
 .text.rt_mp_detach
                0x00000000       0xa0 ./rt-thread/src/mempool.o
 .text.rt_mp_create
                0x00000000      0x144 ./rt-thread/src/mempool.o
 .text.rt_mp_delete
                0x00000000       0xe0 ./rt-thread/src/mempool.o
 .text.rt_mp_alloc
                0x00000000      0x168 ./rt-thread/src/mempool.o
 .text.rt_mp_free
                0x00000000       0x90 ./rt-thread/src/mempool.o
 .rodata.__FUNCTION__.5482
                0x00000000        0xb ./rt-thread/src/mempool.o
 .rodata.__FUNCTION__.5491
                0x00000000        0xd ./rt-thread/src/mempool.o
 .rodata.__FUNCTION__.5504
                0x00000000        0xd ./rt-thread/src/mempool.o
 .rodata.__FUNCTION__.5514
                0x00000000        0xd ./rt-thread/src/mempool.o
 .rodata.__FUNCTION__.5526
                0x00000000        0xc ./rt-thread/src/mempool.o
 .debug_info    0x00000000      0x92f ./rt-thread/src/mempool.o
 .debug_abbrev  0x00000000      0x1f2 ./rt-thread/src/mempool.o
 .debug_loc     0x00000000      0x3ac ./rt-thread/src/mempool.o
 .debug_aranges
                0x00000000       0x70 ./rt-thread/src/mempool.o
 .debug_ranges  0x00000000       0x60 ./rt-thread/src/mempool.o
 .debug_line    0x00000000      0x494 ./rt-thread/src/mempool.o
 .debug_str     0x00000000      0x652 ./rt-thread/src/mempool.o
 .comment       0x00000000       0x6f ./rt-thread/src/mempool.o
 .debug_frame   0x00000000      0x1b0 ./rt-thread/src/mempool.o
 .ARM.attributes
                0x00000000       0x39 ./rt-thread/src/mempool.o
 .text          0x00000000        0x0 ./rt-thread/src/object.o
 .data          0x00000000        0x0 ./rt-thread/src/object.o
 .bss           0x00000000        0x0 ./rt-thread/src/object.o
 .text.rt_object_attach_sethook
                0x00000000       0x20 ./rt-thread/src/object.o
 .text.rt_object_detach_sethook
                0x00000000       0x20 ./rt-thread/src/object.o
 .text.rt_object_trytake_sethook
                0x00000000       0x20 ./rt-thread/src/object.o
 .text.rt_object_take_sethook
                0x00000000       0x20 ./rt-thread/src/object.o
 .text.rt_object_put_sethook
                0x00000000       0x20 ./rt-thread/src/object.o
 .text.rt_object_get_length
                0x00000000       0x60 ./rt-thread/src/object.o
 .text.rt_object_get_pointers
                0x00000000       0x8c ./rt-thread/src/object.o
 .text          0x00000000        0x0 ./rt-thread/src/scheduler.o
 .data          0x00000000        0x0 ./rt-thread/src/scheduler.o
 .bss           0x00000000        0x0 ./rt-thread/src/scheduler.o
 .text.rt_scheduler_sethook
                0x00000000       0x20 ./rt-thread/src/scheduler.o
 .text.rt_scheduler_switch_sethook
                0x00000000       0x20 ./rt-thread/src/scheduler.o
 .text          0x00000000        0x0 ./rt-thread/src/thread.o
 .data          0x00000000        0x0 ./rt-thread/src/thread.o
 .bss           0x00000000        0x0 ./rt-thread/src/thread.o
 .text.rt_thread_suspend_sethook
                0x00000000       0x20 ./rt-thread/src/thread.o
 .text.rt_thread_resume_sethook
                0x00000000       0x20 ./rt-thread/src/thread.o
 .text.rt_thread_inited_sethook
                0x00000000       0x20 ./rt-thread/src/thread.o
 .text.rt_thread_yield
                0x00000000       0x40 ./rt-thread/src/thread.o
 .text.rt_thread_delay_until
                0x00000000       0xe8 ./rt-thread/src/thread.o
 .text.rt_thread_find
                0x00000000       0x1c ./rt-thread/src/thread.o
 .rodata.__FUNCTION__.5561
                0x00000000       0x16 ./rt-thread/src/thread.o
 .text          0x00000000        0x0 ./rt-thread/src/timer.o
 .data          0x00000000        0x0 ./rt-thread/src/timer.o
 .bss           0x00000000        0x0 ./rt-thread/src/timer.o
 .text.rt_timer_enter_sethook
                0x00000000       0x20 ./rt-thread/src/timer.o
 .text.rt_timer_exit_sethook
                0x00000000       0x20 ./rt-thread/src/timer.o
 .text.rt_timer_create
                0x00000000       0x74 ./rt-thread/src/timer.o
 .text.rt_timer_delete
                0x00000000       0x90 ./rt-thread/src/timer.o
 .text.rt_timer_next_timeout_tick
                0x00000000       0x24 ./rt-thread/src/timer.o
 .rodata.__FUNCTION__.5527
                0x00000000       0x10 ./rt-thread/src/timer.o
 .rodata.__FUNCTION__.5532
                0x00000000       0x10 ./rt-thread/src/timer.o
 .data          0x00000000        0x0 ./rt-thread/libcpu/arm/cortex-m4/context_gcc.o
 .bss           0x00000000        0x0 ./rt-thread/libcpu/arm/cortex-m4/context_gcc.o
 .text          0x00000000        0x0 ./rt-thread/libcpu/arm/cortex-m4/cpuport.o
 .data          0x00000000        0x0 ./rt-thread/libcpu/arm/cortex-m4/cpuport.o
 .bss           0x00000000        0x0 ./rt-thread/libcpu/arm/cortex-m4/cpuport.o
 .text.rt_hw_exception_install
                0x00000000       0x20 ./rt-thread/libcpu/arm/cortex-m4/cpuport.o
 .text.rt_hw_cpu_shutdown
                0x00000000       0x28 ./rt-thread/libcpu/arm/cortex-m4/cpuport.o
 .rodata.__FUNCTION__.5506
                0x00000000       0x13 ./rt-thread/libcpu/arm/cortex-m4/cpuport.o
 .text          0x00000000        0x0 ./rt-thread/libcpu/arm/common/backtrace.o
 .data          0x00000000        0x0 ./rt-thread/libcpu/arm/common/backtrace.o
 .bss           0x00000000        0x0 ./rt-thread/libcpu/arm/common/backtrace.o
 .rodata        0x00000000       0x19 ./rt-thread/libcpu/arm/common/backtrace.o
 .text.rt_hw_backtrace
                0x00000000       0x78 ./rt-thread/libcpu/arm/common/backtrace.o
 .debug_info    0x00000000      0x109 ./rt-thread/libcpu/arm/common/backtrace.o
 .debug_abbrev  0x00000000       0x98 ./rt-thread/libcpu/arm/common/backtrace.o
 .debug_loc     0x00000000       0x50 ./rt-thread/libcpu/arm/common/backtrace.o
 .debug_aranges
                0x00000000       0x20 ./rt-thread/libcpu/arm/common/backtrace.o
 .debug_ranges  0x00000000       0x10 ./rt-thread/libcpu/arm/common/backtrace.o
 .debug_line    0x00000000      0x1ed ./rt-thread/libcpu/arm/common/backtrace.o
 .debug_str     0x00000000      0x1fc ./rt-thread/libcpu/arm/common/backtrace.o
 .comment       0x00000000       0x6f ./rt-thread/libcpu/arm/common/backtrace.o
 .debug_frame   0x00000000       0x34 ./rt-thread/libcpu/arm/common/backtrace.o
 .ARM.attributes
                0x00000000       0x39 ./rt-thread/libcpu/arm/common/backtrace.o
 .text          0x00000000        0x0 ./rt-thread/libcpu/arm/common/div0.o
 .data          0x00000000        0x0 ./rt-thread/libcpu/arm/common/div0.o
 .bss           0x00000000        0x0 ./rt-thread/libcpu/arm/common/div0.o
 .text.__div0   0x00000000        0x8 ./rt-thread/libcpu/arm/common/div0.o
 .debug_info    0x00000000       0x40 ./rt-thread/libcpu/arm/common/div0.o
 .debug_abbrev  0x00000000       0x2e ./rt-thread/libcpu/arm/common/div0.o
 .debug_loc     0x00000000       0x2c ./rt-thread/libcpu/arm/common/div0.o
 .debug_aranges
                0x00000000       0x20 ./rt-thread/libcpu/arm/common/div0.o
 .debug_ranges  0x00000000       0x10 ./rt-thread/libcpu/arm/common/div0.o
 .debug_line    0x00000000       0x5a ./rt-thread/libcpu/arm/common/div0.o
 .debug_str     0x00000000      0x118 ./rt-thread/libcpu/arm/common/div0.o
 .comment       0x00000000       0x6f ./rt-thread/libcpu/arm/common/div0.o
 .debug_frame   0x00000000       0x28 ./rt-thread/libcpu/arm/common/div0.o
 .ARM.attributes
                0x00000000       0x39 ./rt-thread/libcpu/arm/common/div0.o
 .text          0x00000000        0x0 ./rt-thread/libcpu/arm/common/showmem.o
 .data          0x00000000        0x0 ./rt-thread/libcpu/arm/common/showmem.o
 .bss           0x00000000        0x0 ./rt-thread/libcpu/arm/common/showmem.o
 .rodata        0x00000000       0x22 ./rt-thread/libcpu/arm/common/showmem.o
 .text.rt_hw_show_memory
                0x00000000       0x94 ./rt-thread/libcpu/arm/common/showmem.o
 .rodata.__FUNCTION__.5389
                0x00000000       0x12 ./rt-thread/libcpu/arm/common/showmem.o
 .debug_info    0x00000000      0x11f ./rt-thread/libcpu/arm/common/showmem.o
 .debug_abbrev  0x00000000       0x97 ./rt-thread/libcpu/arm/common/showmem.o
 .debug_loc     0x00000000       0x50 ./rt-thread/libcpu/arm/common/showmem.o
 .debug_aranges
                0x00000000       0x20 ./rt-thread/libcpu/arm/common/showmem.o
 .debug_ranges  0x00000000       0x10 ./rt-thread/libcpu/arm/common/showmem.o
 .debug_line    0x00000000      0x1f6 ./rt-thread/libcpu/arm/common/showmem.o
 .debug_str     0x00000000      0x1fb ./rt-thread/libcpu/arm/common/showmem.o
 .comment       0x00000000       0x6f ./rt-thread/libcpu/arm/common/showmem.o
 .debug_frame   0x00000000       0x34 ./rt-thread/libcpu/arm/common/showmem.o
 .ARM.attributes
                0x00000000       0x39 ./rt-thread/libcpu/arm/common/showmem.o
 .text          0x00000000        0x0 ./rt-thread/components/libc/compilers/newlib/syscalls.o
 .data          0x00000000        0x0 ./rt-thread/components/libc/compilers/newlib/syscalls.o
 .bss           0x00000000        0x0 ./rt-thread/components/libc/compilers/newlib/syscalls.o
 .text._malloc_r
                0x00000000       0x28 ./rt-thread/components/libc/compilers/newlib/syscalls.o
 .text._realloc_r
                0x00000000       0x2c ./rt-thread/components/libc/compilers/newlib/syscalls.o
 .text._calloc_r
                0x00000000       0x2c ./rt-thread/components/libc/compilers/newlib/syscalls.o
 .text._free_r  0x00000000       0x18 ./rt-thread/components/libc/compilers/newlib/syscalls.o
 .text.__libc_init_array
                0x00000000       0x10 ./rt-thread/components/libc/compilers/newlib/syscalls.o
 .text.__errno  0x00000000       0x10 ./rt-thread/components/libc/compilers/newlib/syscalls.o
 .text._getpid_r
                0x00000000       0x18 ./rt-thread/components/libc/compilers/newlib/syscalls.o
 .text._close_r
                0x00000000       0x1c ./rt-thread/components/libc/compilers/newlib/syscalls.o
 .text._execve_r
                0x00000000       0x24 ./rt-thread/components/libc/compilers/newlib/syscalls.o
 .text._fcntl_r
                0x00000000       0x24 ./rt-thread/components/libc/compilers/newlib/syscalls.o
 .text._fork_r  0x00000000       0x20 ./rt-thread/components/libc/compilers/newlib/syscalls.o
 .text._fstat_r
                0x00000000       0x24 ./rt-thread/components/libc/compilers/newlib/syscalls.o
 .text._isatty_r
                0x00000000       0x28 ./rt-thread/components/libc/compilers/newlib/syscalls.o
 .text._kill_r  0x00000000       0x24 ./rt-thread/components/libc/compilers/newlib/syscalls.o
 .text._link_r  0x00000000       0x24 ./rt-thread/components/libc/compilers/newlib/syscalls.o
 .text._wait_r  0x00000000       0x20 ./rt-thread/components/libc/compilers/newlib/syscalls.o
 .text.umask    0x00000000       0x18 ./rt-thread/components/libc/compilers/newlib/syscalls.o
 .text.flock    0x00000000       0x18 ./rt-thread/components/libc/compilers/newlib/syscalls.o
 .text._lseek_r
                0x00000000       0x24 ./rt-thread/components/libc/compilers/newlib/syscalls.o
 .text._mkdir_r
                0x00000000       0x24 ./rt-thread/components/libc/compilers/newlib/syscalls.o
 .text._open_r  0x00000000       0x24 ./rt-thread/components/libc/compilers/newlib/syscalls.o
 .rodata        0x00000000       0x5e ./rt-thread/components/libc/compilers/newlib/syscalls.o
 .text._read_r  0x00000000       0x78 ./rt-thread/components/libc/compilers/newlib/syscalls.o
 .text._rename_r
                0x00000000       0x20 ./rt-thread/components/libc/compilers/newlib/syscalls.o
 .text._stat_r  0x00000000       0x20 ./rt-thread/components/libc/compilers/newlib/syscalls.o
 .text._unlink_r
                0x00000000       0x1c ./rt-thread/components/libc/compilers/newlib/syscalls.o
 .text._write_r
                0x00000000       0x64 ./rt-thread/components/libc/compilers/newlib/syscalls.o
 .text._exit    0x00000000       0x10 ./rt-thread/components/libc/compilers/newlib/syscalls.o
 .rodata.__func__.6322
                0x00000000        0x8 ./rt-thread/components/libc/compilers/newlib/syscalls.o
 .debug_info    0x00000000     0x16a5 ./rt-thread/components/libc/compilers/newlib/syscalls.o
 .debug_abbrev  0x00000000      0x2ca ./rt-thread/components/libc/compilers/newlib/syscalls.o
 .debug_loc     0x00000000      0x8ac ./rt-thread/components/libc/compilers/newlib/syscalls.o
 .debug_aranges
                0x00000000       0xf0 ./rt-thread/components/libc/compilers/newlib/syscalls.o
 .debug_ranges  0x00000000       0xe0 ./rt-thread/components/libc/compilers/newlib/syscalls.o
 .debug_line    0x00000000      0x562 ./rt-thread/components/libc/compilers/newlib/syscalls.o
 .debug_str     0x00000000      0xc20 ./rt-thread/components/libc/compilers/newlib/syscalls.o
 .comment       0x00000000       0x6f ./rt-thread/components/libc/compilers/newlib/syscalls.o
 .debug_frame   0x00000000      0x3f8 ./rt-thread/components/libc/compilers/newlib/syscalls.o
 .ARM.attributes
                0x00000000       0x39 ./rt-thread/components/libc/compilers/newlib/syscalls.o
 .text          0x00000000        0x0 ./rt-thread/components/libc/compilers/common/cctype.o
 .data          0x00000000        0x0 ./rt-thread/components/libc/compilers/common/cctype.o
 .bss           0x00000000        0x0 ./rt-thread/components/libc/compilers/common/cctype.o
 .text.isascii  0x00000000       0x28 ./rt-thread/components/libc/compilers/common/cctype.o
 .text.toascii  0x00000000       0x1c ./rt-thread/components/libc/compilers/common/cctype.o
 .debug_info    0x00000000       0xc9 ./rt-thread/components/libc/compilers/common/cctype.o
 .debug_abbrev  0x00000000       0x71 ./rt-thread/components/libc/compilers/common/cctype.o
 .debug_loc     0x00000000       0xb8 ./rt-thread/components/libc/compilers/common/cctype.o
 .debug_aranges
                0x00000000       0x28 ./rt-thread/components/libc/compilers/common/cctype.o
 .debug_ranges  0x00000000       0x18 ./rt-thread/components/libc/compilers/common/cctype.o
 .debug_line    0x00000000       0x8e ./rt-thread/components/libc/compilers/common/cctype.o
 .debug_str     0x00000000      0x1c2 ./rt-thread/components/libc/compilers/common/cctype.o
 .comment       0x00000000       0x6f ./rt-thread/components/libc/compilers/common/cctype.o
 .debug_frame   0x00000000       0x60 ./rt-thread/components/libc/compilers/common/cctype.o
 .ARM.attributes
                0x00000000       0x39 ./rt-thread/components/libc/compilers/common/cctype.o
 .text          0x00000000        0x0 ./rt-thread/components/libc/compilers/common/cstdio.o
 .data          0x00000000        0x0 ./rt-thread/components/libc/compilers/common/cstdio.o
 .bss           0x00000000        0x0 ./rt-thread/components/libc/compilers/common/cstdio.o
 .debug_info    0x00000000       0x79 ./rt-thread/components/libc/compilers/common/cstdio.o
 .debug_abbrev  0x00000000       0x26 ./rt-thread/components/libc/compilers/common/cstdio.o
 .debug_aranges
                0x00000000       0x18 ./rt-thread/components/libc/compilers/common/cstdio.o
 .debug_line    0x00000000       0x1d ./rt-thread/components/libc/compilers/common/cstdio.o
 .debug_str     0x00000000      0x1c0 ./rt-thread/components/libc/compilers/common/cstdio.o
 .comment       0x00000000       0x6f ./rt-thread/components/libc/compilers/common/cstdio.o
 .ARM.attributes
                0x00000000       0x39 ./rt-thread/components/libc/compilers/common/cstdio.o
 .text          0x00000000        0x0 ./rt-thread/components/libc/compilers/common/cstdlib.o
 .data          0x00000000        0x0 ./rt-thread/components/libc/compilers/common/cstdlib.o
 .bss           0x00000000        0x0 ./rt-thread/components/libc/compilers/common/cstdlib.o
 .rodata        0x00000000       0x22 ./rt-thread/components/libc/compilers/common/cstdlib.o
 .text.__rt_libc_exit
                0x00000000       0x4c ./rt-thread/components/libc/compilers/common/cstdlib.o
 .text.system   0x00000000       0x28 ./rt-thread/components/libc/compilers/common/cstdlib.o
 .text.ltoa     0x00000000       0xec ./rt-thread/components/libc/compilers/common/cstdlib.o
 .text.itoa     0x00000000       0x20 ./rt-thread/components/libc/compilers/common/cstdlib.o
 .text.ultoa    0x00000000       0xb8 ./rt-thread/components/libc/compilers/common/cstdlib.o
 .text.utoa     0x00000000       0x20 ./rt-thread/components/libc/compilers/common/cstdlib.o
 .debug_info    0x00000000      0x5eb ./rt-thread/components/libc/compilers/common/cstdlib.o
 .debug_abbrev  0x00000000      0x158 ./rt-thread/components/libc/compilers/common/cstdlib.o
 .debug_loc     0x00000000      0x1fc ./rt-thread/components/libc/compilers/common/cstdlib.o
 .debug_aranges
                0x00000000       0x48 ./rt-thread/components/libc/compilers/common/cstdlib.o
 .debug_ranges  0x00000000       0x38 ./rt-thread/components/libc/compilers/common/cstdlib.o
 .debug_line    0x00000000      0x33c ./rt-thread/components/libc/compilers/common/cstdlib.o
 .debug_str     0x00000000      0x3bd ./rt-thread/components/libc/compilers/common/cstdlib.o
 .comment       0x00000000       0x6f ./rt-thread/components/libc/compilers/common/cstdlib.o
 .debug_frame   0x00000000       0xf0 ./rt-thread/components/libc/compilers/common/cstdlib.o
 .ARM.attributes
                0x00000000       0x39 ./rt-thread/components/libc/compilers/common/cstdlib.o
 .text          0x00000000        0x0 ./rt-thread/components/libc/compilers/common/cstring.o
 .data          0x00000000        0x0 ./rt-thread/components/libc/compilers/common/cstring.o
 .bss           0x00000000        0x0 ./rt-thread/components/libc/compilers/common/cstring.o
 .text.bzero    0x00000000       0x1c ./rt-thread/components/libc/compilers/common/cstring.o
 .text.bcopy    0x00000000       0x20 ./rt-thread/components/libc/compilers/common/cstring.o
 .text.bcmp     0x00000000       0x20 ./rt-thread/components/libc/compilers/common/cstring.o
 .text.explicit_bzero
                0x00000000       0x34 ./rt-thread/components/libc/compilers/common/cstring.o
 .text.index    0x00000000       0x1c ./rt-thread/components/libc/compilers/common/cstring.o
 .text.rindex   0x00000000       0x1c ./rt-thread/components/libc/compilers/common/cstring.o
 .text.ffs      0x00000000       0x3c ./rt-thread/components/libc/compilers/common/cstring.o
 .text.ffsl     0x00000000       0x3c ./rt-thread/components/libc/compilers/common/cstring.o
 .text.ffsll    0x00000000       0x54 ./rt-thread/components/libc/compilers/common/cstring.o
 .text.memrchr  0x00000000       0x58 ./rt-thread/components/libc/compilers/common/cstring.o
 .text.strnlen  0x00000000       0x3c ./rt-thread/components/libc/compilers/common/cstring.o
 .text.strchrnul
                0x00000000       0x34 ./rt-thread/components/libc/compilers/common/cstring.o
 .text.strcasecmp
                0x00000000       0x88 ./rt-thread/components/libc/compilers/common/cstring.o
 .text.strncasecmp
                0x00000000       0x9c ./rt-thread/components/libc/compilers/common/cstring.o
 .text.strdup   0x00000000       0x34 ./rt-thread/components/libc/compilers/common/cstring.o
 .text.strndup  0x00000000       0x48 ./rt-thread/components/libc/compilers/common/cstring.o
 .text.strtok_r
                0x00000000       0xb4 ./rt-thread/components/libc/compilers/common/cstring.o
 .debug_info    0x00000000      0x5d6 ./rt-thread/components/libc/compilers/common/cstring.o
 .debug_abbrev  0x00000000      0x134 ./rt-thread/components/libc/compilers/common/cstring.o
 .debug_loc     0x00000000      0x5a4 ./rt-thread/components/libc/compilers/common/cstring.o
 .debug_aranges
                0x00000000       0xa0 ./rt-thread/components/libc/compilers/common/cstring.o
 .debug_ranges  0x00000000       0x90 ./rt-thread/components/libc/compilers/common/cstring.o
 .debug_line    0x00000000      0x3be ./rt-thread/components/libc/compilers/common/cstring.o
 .debug_str     0x00000000      0x286 ./rt-thread/components/libc/compilers/common/cstring.o
 .comment       0x00000000       0x6f ./rt-thread/components/libc/compilers/common/cstring.o
 .debug_frame   0x00000000      0x298 ./rt-thread/components/libc/compilers/common/cstring.o
 .ARM.attributes
                0x00000000       0x39 ./rt-thread/components/libc/compilers/common/cstring.o
 .text          0x00000000        0x0 ./rt-thread/components/libc/compilers/common/ctime.o
 .data          0x00000000        0x0 ./rt-thread/components/libc/compilers/common/ctime.o
 .bss           0x00000000        0x0 ./rt-thread/components/libc/compilers/common/ctime.o
 .rodata.__spm  0x00000000       0x1a ./rt-thread/components/libc/compilers/common/ctime.o
 .rodata        0x00000000       0xc5 ./rt-thread/components/libc/compilers/common/ctime.o
 .data.days     0x00000000        0x4 ./rt-thread/components/libc/compilers/common/ctime.o
 .data.months   0x00000000        0x4 ./rt-thread/components/libc/compilers/common/ctime.o
 .text.__isleap
                0x00000000       0x60 ./rt-thread/components/libc/compilers/common/ctime.o
 .text.num2str  0x00000000       0x58 ./rt-thread/components/libc/compilers/common/ctime.o
 .text.get_timeval
                0x00000000       0x34 ./rt-thread/components/libc/compilers/common/ctime.o
 .text.set_timeval
                0x00000000       0x34 ./rt-thread/components/libc/compilers/common/ctime.o
 .text.gmtime_r
                0x00000000      0x1b8 ./rt-thread/components/libc/compilers/common/ctime.o
 .text.gmtime   0x00000000       0x20 ./rt-thread/components/libc/compilers/common/ctime.o
 .text.localtime_r
                0x00000000       0x38 ./rt-thread/components/libc/compilers/common/ctime.o
 .text.localtime
                0x00000000       0x20 ./rt-thread/components/libc/compilers/common/ctime.o
 .text.mktime   0x00000000       0x34 ./rt-thread/components/libc/compilers/common/ctime.o
 .text.asctime_r
                0x00000000      0x244 ./rt-thread/components/libc/compilers/common/ctime.o
 .text.asctime  0x00000000       0x20 ./rt-thread/components/libc/compilers/common/ctime.o
 .text.ctime_r  0x00000000       0x2c ./rt-thread/components/libc/compilers/common/ctime.o
 .text.ctime    0x00000000       0x20 ./rt-thread/components/libc/compilers/common/ctime.o
 .text.difftime
                0x00000000       0x2c ./rt-thread/components/libc/compilers/common/ctime.o
 .text.time     0x00000000       0x3c ./rt-thread/components/libc/compilers/common/ctime.o
 .text.clock    0x00000000       0x10 ./rt-thread/components/libc/compilers/common/ctime.o
 .text.stime    0x00000000       0x48 ./rt-thread/components/libc/compilers/common/ctime.o
 .text.timegm   0x00000000      0x2bc ./rt-thread/components/libc/compilers/common/ctime.o
 .text.gettimeofday
                0x00000000       0x54 ./rt-thread/components/libc/compilers/common/ctime.o
 .text.settimeofday
                0x00000000       0x3c ./rt-thread/components/libc/compilers/common/ctime.o
 .data._current_timezone
                0x00000000        0x1 ./rt-thread/components/libc/compilers/common/ctime.o
 .text.tz_set   0x00000000       0x28 ./rt-thread/components/libc/compilers/common/ctime.o
 .text.tz_get   0x00000000       0x18 ./rt-thread/components/libc/compilers/common/ctime.o
 .text.tz_is_dst
                0x00000000       0x10 ./rt-thread/components/libc/compilers/common/ctime.o
 .bss.tmp.5675  0x00000000       0x24 ./rt-thread/components/libc/compilers/common/ctime.o
 .bss.tmp.5684  0x00000000       0x24 ./rt-thread/components/libc/compilers/common/ctime.o
 .bss.buf.5696  0x00000000       0x1a ./rt-thread/components/libc/compilers/common/ctime.o
 .debug_info    0x00000000      0x79b ./rt-thread/components/libc/compilers/common/ctime.o
 .debug_abbrev  0x00000000      0x1e0 ./rt-thread/components/libc/compilers/common/ctime.o
 .debug_loc     0x00000000      0x70c ./rt-thread/components/libc/compilers/common/ctime.o
 .debug_aranges
                0x00000000       0xd0 ./rt-thread/components/libc/compilers/common/ctime.o
 .debug_ranges  0x00000000       0xd8 ./rt-thread/components/libc/compilers/common/ctime.o
 .debug_line    0x00000000      0x56f ./rt-thread/components/libc/compilers/common/ctime.o
 .debug_str     0x00000000      0x3cf ./rt-thread/components/libc/compilers/common/ctime.o
 .comment       0x00000000       0x6f ./rt-thread/components/libc/compilers/common/ctime.o
 .debug_frame   0x00000000      0x358 ./rt-thread/components/libc/compilers/common/ctime.o
 .ARM.attributes
                0x00000000       0x39 ./rt-thread/components/libc/compilers/common/ctime.o
 .text          0x00000000        0x0 ./rt-thread/components/libc/compilers/common/cwchar.o
 .data          0x00000000        0x0 ./rt-thread/components/libc/compilers/common/cwchar.o
 .bss           0x00000000        0x0 ./rt-thread/components/libc/compilers/common/cwchar.o
 .text.bisearch
                0x00000000       0x90 ./rt-thread/components/libc/compilers/common/cwchar.o
 .text.wcwidth  0x00000000       0xe8 ./rt-thread/components/libc/compilers/common/cwchar.o
 .text.wcswidth
                0x00000000       0x54 ./rt-thread/components/libc/compilers/common/cwchar.o
 .rodata.combining.4882
                0x00000000      0x320 ./rt-thread/components/libc/compilers/common/cwchar.o
 .debug_info    0x00000000      0x1e5 ./rt-thread/components/libc/compilers/common/cwchar.o
 .debug_abbrev  0x00000000       0xf8 ./rt-thread/components/libc/compilers/common/cwchar.o
 .debug_loc     0x00000000       0xfc ./rt-thread/components/libc/compilers/common/cwchar.o
 .debug_aranges
                0x00000000       0x30 ./rt-thread/components/libc/compilers/common/cwchar.o
 .debug_ranges  0x00000000       0x20 ./rt-thread/components/libc/compilers/common/cwchar.o
 .debug_line    0x00000000      0x1ad ./rt-thread/components/libc/compilers/common/cwchar.o
 .debug_str     0x00000000      0x218 ./rt-thread/components/libc/compilers/common/cwchar.o
 .comment       0x00000000       0x6f ./rt-thread/components/libc/compilers/common/cwchar.o
 .debug_frame   0x00000000       0x80 ./rt-thread/components/libc/compilers/common/cwchar.o
 .ARM.attributes
                0x00000000       0x39 ./rt-thread/components/libc/compilers/common/cwchar.o
 .text          0x00000000        0x0 ./rt-thread/components/finsh/cmd.o
 .data          0x00000000        0x0 ./rt-thread/components/finsh/cmd.o
 .bss           0x00000000        0x0 ./rt-thread/components/finsh/cmd.o
 .text          0x00000000        0x0 ./rt-thread/components/finsh/msh.o
 .data          0x00000000        0x0 ./rt-thread/components/finsh/msh.o
 .bss           0x00000000        0x0 ./rt-thread/components/finsh/msh.o
 .text          0x00000000        0x0 ./rt-thread/components/finsh/msh_file.o
 .data          0x00000000        0x0 ./rt-thread/components/finsh/msh_file.o
 .bss           0x00000000        0x0 ./rt-thread/components/finsh/msh_file.o
 .text          0x00000000        0x0 ./rt-thread/components/finsh/msh_parse.o
 .data          0x00000000        0x0 ./rt-thread/components/finsh/msh_parse.o
 .bss           0x00000000        0x0 ./rt-thread/components/finsh/msh_parse.o
 .text.msh_ishex
                0x00000000       0x94 ./rt-thread/components/finsh/msh_parse.o
 .text.msh_strtohex
                0x00000000       0x84 ./rt-thread/components/finsh/msh_parse.o
 .text          0x00000000        0x0 ./rt-thread/components/finsh/shell.o
 .data          0x00000000        0x0 ./rt-thread/components/finsh/shell.o
 .bss           0x00000000        0x0 ./rt-thread/components/finsh/shell.o
 .text.finsh_set_prompt
                0x00000000       0x60 ./rt-thread/components/finsh/shell.o
 .text.finsh_get_prompt_mode
                0x00000000       0x34 ./rt-thread/components/finsh/shell.o
 .text.finsh_get_device
                0x00000000       0x30 ./rt-thread/components/finsh/shell.o
 .text.finsh_set_echo
                0x00000000       0x4c ./rt-thread/components/finsh/shell.o
 .text.finsh_get_echo
                0x00000000       0x38 ./rt-thread/components/finsh/shell.o
 .rodata.__FUNCTION__.6263
                0x00000000       0x16 ./rt-thread/components/finsh/shell.o
 .rodata.__FUNCTION__.6289
                0x00000000       0x11 ./rt-thread/components/finsh/shell.o
 .rodata.__FUNCTION__.6293
                0x00000000        0xf ./rt-thread/components/finsh/shell.o
 .rodata.__FUNCTION__.6296
                0x00000000        0xf ./rt-thread/components/finsh/shell.o
 .text          0x00000000        0x0 ./rt-thread/components/drivers/serial/serial.o
 .data          0x00000000        0x0 ./rt-thread/components/drivers/serial/serial.o
 .bss           0x00000000        0x0 ./rt-thread/components/drivers/serial/serial.o
 .text          0x00000000        0x0 ./rt-thread/components/drivers/misc/pin.o
 .data          0x00000000        0x0 ./rt-thread/components/drivers/misc/pin.o
 .bss           0x00000000        0x0 ./rt-thread/components/drivers/misc/pin.o
 .text.rt_pin_attach_irq
                0x00000000       0x5c ./rt-thread/components/drivers/misc/pin.o
 .text.rt_pin_detach_irq
                0x00000000       0x4c ./rt-thread/components/drivers/misc/pin.o
 .text.rt_pin_irq_enable
                0x00000000       0x50 ./rt-thread/components/drivers/misc/pin.o
 .rodata.__FUNCTION__.5490
                0x00000000       0x12 ./rt-thread/components/drivers/misc/pin.o
 .rodata.__FUNCTION__.5494
                0x00000000       0x12 ./rt-thread/components/drivers/misc/pin.o
 .rodata.__FUNCTION__.5499
                0x00000000       0x12 ./rt-thread/components/drivers/misc/pin.o
 .text          0x00000000        0x0 ./rt-thread/components/drivers/ipc/completion.o
 .data          0x00000000        0x0 ./rt-thread/components/drivers/ipc/completion.o
 .bss           0x00000000        0x0 ./rt-thread/components/drivers/ipc/completion.o
 .text          0x00000000        0x0 ./rt-thread/components/drivers/ipc/dataqueue.o
 .data          0x00000000        0x0 ./rt-thread/components/drivers/ipc/dataqueue.o
 .bss           0x00000000        0x0 ./rt-thread/components/drivers/ipc/dataqueue.o
 .text          0x00000000        0x0 ./rt-thread/components/drivers/ipc/pipe.o
 .data          0x00000000        0x0 ./rt-thread/components/drivers/ipc/pipe.o
 .bss           0x00000000        0x0 ./rt-thread/components/drivers/ipc/pipe.o
 .text.rt_list_init
                0x00000000       0x24 ./rt-thread/components/drivers/ipc/pipe.o
 .rodata        0x00000000       0x23 ./rt-thread/components/drivers/ipc/pipe.o
 .text.rt_wqueue_init
                0x00000000       0x38 ./rt-thread/components/drivers/ipc/pipe.o
 .text.rt_pipe_open
                0x00000000       0x6c ./rt-thread/components/drivers/ipc/pipe.o
 .text.rt_pipe_close
                0x00000000       0x54 ./rt-thread/components/drivers/ipc/pipe.o
 .text.rt_pipe_read
                0x00000000       0x94 ./rt-thread/components/drivers/ipc/pipe.o
 .text.rt_pipe_write
                0x00000000       0x94 ./rt-thread/components/drivers/ipc/pipe.o
 .text.rt_pipe_control
                0x00000000       0x1c ./rt-thread/components/drivers/ipc/pipe.o
 .text.rt_pipe_create
                0x00000000       0xec ./rt-thread/components/drivers/ipc/pipe.o
 .text.rt_pipe_delete
                0x00000000       0x7c ./rt-thread/components/drivers/ipc/pipe.o
 .rodata.__FUNCTION__.5910
                0x00000000        0xf ./rt-thread/components/drivers/ipc/pipe.o
 .rodata.__FUNCTION__.5628
                0x00000000        0xf ./rt-thread/components/drivers/ipc/pipe.o
 .debug_info    0x00000000      0xbe9 ./rt-thread/components/drivers/ipc/pipe.o
 .debug_abbrev  0x00000000      0x227 ./rt-thread/components/drivers/ipc/pipe.o
 .debug_loc     0x00000000      0x2e8 ./rt-thread/components/drivers/ipc/pipe.o
 .debug_aranges
                0x00000000       0x60 ./rt-thread/components/drivers/ipc/pipe.o
 .debug_ranges  0x00000000       0x80 ./rt-thread/components/drivers/ipc/pipe.o
 .debug_line    0x00000000      0x406 ./rt-thread/components/drivers/ipc/pipe.o
 .debug_str     0x00000000      0x8c5 ./rt-thread/components/drivers/ipc/pipe.o
 .comment       0x00000000       0x6f ./rt-thread/components/drivers/ipc/pipe.o
 .debug_frame   0x00000000      0x15c ./rt-thread/components/drivers/ipc/pipe.o
 .ARM.attributes
                0x00000000       0x39 ./rt-thread/components/drivers/ipc/pipe.o
 .text          0x00000000        0x0 ./rt-thread/components/drivers/ipc/ringblk_buf.o
 .data          0x00000000        0x0 ./rt-thread/components/drivers/ipc/ringblk_buf.o
 .bss           0x00000000        0x0 ./rt-thread/components/drivers/ipc/ringblk_buf.o
 .text.rt_slist_init
                0x00000000       0x1c ./rt-thread/components/drivers/ipc/ringblk_buf.o
 .text.rt_slist_insert
                0x00000000       0x24 ./rt-thread/components/drivers/ipc/ringblk_buf.o
 .text.rt_slist_remove
                0x00000000       0x48 ./rt-thread/components/drivers/ipc/ringblk_buf.o
 .text.rt_slist_first
                0x00000000       0x18 ./rt-thread/components/drivers/ipc/ringblk_buf.o
 .text.rt_slist_next
                0x00000000       0x18 ./rt-thread/components/drivers/ipc/ringblk_buf.o
 .text.rt_slist_isempty
                0x00000000       0x24 ./rt-thread/components/drivers/ipc/ringblk_buf.o
 .rodata        0x00000000       0xaa ./rt-thread/components/drivers/ipc/ringblk_buf.o
 .text.rt_rbb_init
                0x00000000       0xec ./rt-thread/components/drivers/ipc/ringblk_buf.o
 .text.rt_rbb_create
                0x00000000       0x7c ./rt-thread/components/drivers/ipc/ringblk_buf.o
 .text.rt_rbb_destroy
                0x00000000       0x44 ./rt-thread/components/drivers/ipc/ringblk_buf.o
 .text.find_empty_blk_in_set
                0x00000000       0x70 ./rt-thread/components/drivers/ipc/ringblk_buf.o
 .text.list_append
                0x00000000       0x2c ./rt-thread/components/drivers/ipc/ringblk_buf.o
 .text.list_remove
                0x00000000       0x64 ./rt-thread/components/drivers/ipc/ringblk_buf.o
 .text.rt_rbb_blk_alloc
                0x00000000      0x1cc ./rt-thread/components/drivers/ipc/ringblk_buf.o
 .text.rt_rbb_blk_put
                0x00000000       0x48 ./rt-thread/components/drivers/ipc/ringblk_buf.o
 .text.rt_rbb_blk_get
                0x00000000       0x88 ./rt-thread/components/drivers/ipc/ringblk_buf.o
 .text.rt_rbb_blk_size
                0x00000000       0x34 ./rt-thread/components/drivers/ipc/ringblk_buf.o
 .text.rt_rbb_blk_buf
                0x00000000       0x30 ./rt-thread/components/drivers/ipc/ringblk_buf.o
 .text.rt_rbb_blk_free
                0x00000000       0x8c ./rt-thread/components/drivers/ipc/ringblk_buf.o
 .text.rt_rbb_blk_queue_get
                0x00000000      0x11c ./rt-thread/components/drivers/ipc/ringblk_buf.o
 .text.rt_rbb_blk_queue_len
                0x00000000       0x64 ./rt-thread/components/drivers/ipc/ringblk_buf.o
 .text.rt_rbb_blk_queue_buf
                0x00000000       0x30 ./rt-thread/components/drivers/ipc/ringblk_buf.o
 .text.rt_rbb_blk_queue_free
                0x00000000       0x74 ./rt-thread/components/drivers/ipc/ringblk_buf.o
 .text.rt_rbb_next_blk_queue_len
                0x00000000       0xb8 ./rt-thread/components/drivers/ipc/ringblk_buf.o
 .text.rt_rbb_get_buf_size
                0x00000000       0x30 ./rt-thread/components/drivers/ipc/ringblk_buf.o
 .rodata.__FUNCTION__.5866
                0x00000000        0xc ./rt-thread/components/drivers/ipc/ringblk_buf.o
 .rodata.__FUNCTION__.5880
                0x00000000        0xf ./rt-thread/components/drivers/ipc/ringblk_buf.o
 .rodata.__FUNCTION__.5885
                0x00000000       0x16 ./rt-thread/components/drivers/ipc/ringblk_buf.o
 .rodata.__FUNCTION__.5909
                0x00000000       0x11 ./rt-thread/components/drivers/ipc/ringblk_buf.o
 .rodata.__FUNCTION__.5913
                0x00000000        0xf ./rt-thread/components/drivers/ipc/ringblk_buf.o
 .rodata.__FUNCTION__.5920
                0x00000000        0xf ./rt-thread/components/drivers/ipc/ringblk_buf.o
 .rodata.__FUNCTION__.5928
                0x00000000       0x10 ./rt-thread/components/drivers/ipc/ringblk_buf.o
 .rodata.__FUNCTION__.5932
                0x00000000        0xf ./rt-thread/components/drivers/ipc/ringblk_buf.o
 .rodata.__FUNCTION__.5938
                0x00000000       0x10 ./rt-thread/components/drivers/ipc/ringblk_buf.o
 .rodata.__FUNCTION__.5950
                0x00000000       0x15 ./rt-thread/components/drivers/ipc/ringblk_buf.o
 .rodata.__FUNCTION__.5961
                0x00000000       0x15 ./rt-thread/components/drivers/ipc/ringblk_buf.o
 .rodata.__FUNCTION__.5968
                0x00000000       0x15 ./rt-thread/components/drivers/ipc/ringblk_buf.o
 .rodata.__FUNCTION__.5976
                0x00000000       0x16 ./rt-thread/components/drivers/ipc/ringblk_buf.o
 .rodata.__FUNCTION__.5988
                0x00000000       0x1a ./rt-thread/components/drivers/ipc/ringblk_buf.o
 .rodata.__FUNCTION__.5996
                0x00000000       0x14 ./rt-thread/components/drivers/ipc/ringblk_buf.o
 .debug_info    0x00000000      0xae8 ./rt-thread/components/drivers/ipc/ringblk_buf.o
 .debug_abbrev  0x00000000      0x22c ./rt-thread/components/drivers/ipc/ringblk_buf.o
 .debug_loc     0x00000000      0x7e0 ./rt-thread/components/drivers/ipc/ringblk_buf.o
 .debug_aranges
                0x00000000       0xd8 ./rt-thread/components/drivers/ipc/ringblk_buf.o
 .debug_ranges  0x00000000       0xc8 ./rt-thread/components/drivers/ipc/ringblk_buf.o
 .debug_line    0x00000000      0x694 ./rt-thread/components/drivers/ipc/ringblk_buf.o
 .debug_str     0x00000000      0x53f ./rt-thread/components/drivers/ipc/ringblk_buf.o
 .comment       0x00000000       0x6f ./rt-thread/components/drivers/ipc/ringblk_buf.o
 .debug_frame   0x00000000      0x390 ./rt-thread/components/drivers/ipc/ringblk_buf.o
 .ARM.attributes
                0x00000000       0x39 ./rt-thread/components/drivers/ipc/ringblk_buf.o
 .text          0x00000000        0x0 ./rt-thread/components/drivers/ipc/ringbuffer.o
 .data          0x00000000        0x0 ./rt-thread/components/drivers/ipc/ringbuffer.o
 .bss           0x00000000        0x0 ./rt-thread/components/drivers/ipc/ringbuffer.o
 .text.rt_ringbuffer_status
                0x00000000       0x50 ./rt-thread/components/drivers/ipc/ringbuffer.o
 .rodata        0x00000000       0x19 ./rt-thread/components/drivers/ipc/ringbuffer.o
 .text.rt_ringbuffer_init
                0x00000000       0xa4 ./rt-thread/components/drivers/ipc/ringbuffer.o
 .text.rt_ringbuffer_put
                0x00000000      0x16c ./rt-thread/components/drivers/ipc/ringbuffer.o
 .text.rt_ringbuffer_put_force
                0x00000000      0x1ec ./rt-thread/components/drivers/ipc/ringbuffer.o
 .text.rt_ringbuffer_get
                0x00000000      0x15c ./rt-thread/components/drivers/ipc/ringbuffer.o
 .text.rt_ringbuffer_peek
                0x00000000       0xdc ./rt-thread/components/drivers/ipc/ringbuffer.o
 .text.rt_ringbuffer_putchar
                0x00000000       0xbc ./rt-thread/components/drivers/ipc/ringbuffer.o
 .text.rt_ringbuffer_putchar_force
                0x00000000      0x100 ./rt-thread/components/drivers/ipc/ringbuffer.o
 .text.rt_ringbuffer_getchar
                0x00000000       0xb4 ./rt-thread/components/drivers/ipc/ringbuffer.o
 .text.rt_ringbuffer_data_len
                0x00000000       0x68 ./rt-thread/components/drivers/ipc/ringbuffer.o
 .text.rt_ringbuffer_reset
                0x00000000       0x54 ./rt-thread/components/drivers/ipc/ringbuffer.o
 .text.rt_ringbuffer_create
                0x00000000       0x74 ./rt-thread/components/drivers/ipc/ringbuffer.o
 .text.rt_ringbuffer_destroy
                0x00000000       0x3c ./rt-thread/components/drivers/ipc/ringbuffer.o
 .rodata.__FUNCTION__.5792
                0x00000000       0x13 ./rt-thread/components/drivers/ipc/ringbuffer.o
 .rodata.__FUNCTION__.5799
                0x00000000       0x12 ./rt-thread/components/drivers/ipc/ringbuffer.o
 .rodata.__FUNCTION__.5806
                0x00000000       0x18 ./rt-thread/components/drivers/ipc/ringbuffer.o
 .rodata.__FUNCTION__.5813
                0x00000000       0x12 ./rt-thread/components/drivers/ipc/ringbuffer.o
 .rodata.__FUNCTION__.5819
                0x00000000       0x13 ./rt-thread/components/drivers/ipc/ringbuffer.o
 .rodata.__FUNCTION__.5824
                0x00000000       0x16 ./rt-thread/components/drivers/ipc/ringbuffer.o
 .rodata.__FUNCTION__.5830
                0x00000000       0x1c ./rt-thread/components/drivers/ipc/ringbuffer.o
 .rodata.__FUNCTION__.5835
                0x00000000       0x16 ./rt-thread/components/drivers/ipc/ringbuffer.o
 .rodata.__FUNCTION__.5848
                0x00000000       0x14 ./rt-thread/components/drivers/ipc/ringbuffer.o
 .rodata.__FUNCTION__.5854
                0x00000000       0x15 ./rt-thread/components/drivers/ipc/ringbuffer.o
 .rodata.__FUNCTION__.5859
                0x00000000       0x16 ./rt-thread/components/drivers/ipc/ringbuffer.o
 .debug_info    0x00000000      0x683 ./rt-thread/components/drivers/ipc/ringbuffer.o
 .debug_abbrev  0x00000000      0x1ba ./rt-thread/components/drivers/ipc/ringbuffer.o
 .debug_loc     0x00000000      0x41c ./rt-thread/components/drivers/ipc/ringbuffer.o
 .debug_aranges
                0x00000000       0x80 ./rt-thread/components/drivers/ipc/ringbuffer.o
 .debug_ranges  0x00000000       0x70 ./rt-thread/components/drivers/ipc/ringbuffer.o
 .debug_line    0x00000000      0x485 ./rt-thread/components/drivers/ipc/ringbuffer.o
 .debug_str     0x00000000      0x41b ./rt-thread/components/drivers/ipc/ringbuffer.o
 .comment       0x00000000       0x6f ./rt-thread/components/drivers/ipc/ringbuffer.o
 .debug_frame   0x00000000      0x1f8 ./rt-thread/components/drivers/ipc/ringbuffer.o
 .ARM.attributes
                0x00000000       0x39 ./rt-thread/components/drivers/ipc/ringbuffer.o
 .text          0x00000000        0x0 ./rt-thread/components/drivers/ipc/waitqueue.o
 .data          0x00000000        0x0 ./rt-thread/components/drivers/ipc/waitqueue.o
 .bss           0x00000000        0x0 ./rt-thread/components/drivers/ipc/waitqueue.o
 .text.rt_list_init
                0x00000000       0x24 ./rt-thread/components/drivers/ipc/waitqueue.o
 .text.rt_list_insert_before
                0x00000000       0x34 ./rt-thread/components/drivers/ipc/waitqueue.o
 .text.rt_list_remove
                0x00000000       0x38 ./rt-thread/components/drivers/ipc/waitqueue.o
 .text.rt_list_isempty
                0x00000000       0x24 ./rt-thread/components/drivers/ipc/waitqueue.o
 .text.rt_wqueue_add
                0x00000000       0x30 ./rt-thread/components/drivers/ipc/waitqueue.o
 .text.rt_wqueue_remove
                0x00000000       0x28 ./rt-thread/components/drivers/ipc/waitqueue.o
 .text.__wqueue_default_wake
                0x00000000       0x18 ./rt-thread/components/drivers/ipc/waitqueue.o
 .text.rt_wqueue_wakeup
                0x00000000       0x88 ./rt-thread/components/drivers/ipc/waitqueue.o
 .rodata        0x00000000       0x8f ./rt-thread/components/drivers/ipc/waitqueue.o
 .text.rt_wqueue_wait
                0x00000000      0x158 ./rt-thread/components/drivers/ipc/waitqueue.o
 .rodata.__FUNCTION__.5894
                0x00000000        0xf ./rt-thread/components/drivers/ipc/waitqueue.o
 .debug_info    0x00000000      0x73e ./rt-thread/components/drivers/ipc/waitqueue.o
 .debug_abbrev  0x00000000      0x1c7 ./rt-thread/components/drivers/ipc/waitqueue.o
 .debug_loc     0x00000000      0x30e ./rt-thread/components/drivers/ipc/waitqueue.o
 .debug_aranges
                0x00000000       0x60 ./rt-thread/components/drivers/ipc/waitqueue.o
 .debug_ranges  0x00000000       0x50 ./rt-thread/components/drivers/ipc/waitqueue.o
 .debug_line    0x00000000      0x343 ./rt-thread/components/drivers/ipc/waitqueue.o
 .debug_str     0x00000000      0x4a4 ./rt-thread/components/drivers/ipc/waitqueue.o
 .comment       0x00000000       0x6f ./rt-thread/components/drivers/ipc/waitqueue.o
 .debug_frame   0x00000000      0x168 ./rt-thread/components/drivers/ipc/waitqueue.o
 .ARM.attributes
                0x00000000       0x39 ./rt-thread/components/drivers/ipc/waitqueue.o
 .text          0x00000000        0x0 ./rt-thread/components/drivers/ipc/workqueue.o
 .data          0x00000000        0x0 ./rt-thread/components/drivers/ipc/workqueue.o
 .bss           0x00000000        0x0 ./rt-thread/components/drivers/ipc/workqueue.o
 .text.rt_list_init
                0x00000000       0x24 ./rt-thread/components/drivers/ipc/workqueue.o
 .text.rt_list_insert_after
                0x00000000       0x34 ./rt-thread/components/drivers/ipc/workqueue.o
 .text.rt_list_remove
                0x00000000       0x38 ./rt-thread/components/drivers/ipc/workqueue.o
 .text.rt_list_isempty
                0x00000000       0x24 ./rt-thread/components/drivers/ipc/workqueue.o
 .text._workqueue_work_completion
                0x00000000       0x4c ./rt-thread/components/drivers/ipc/workqueue.o
 .rodata        0x00000000       0x64 ./rt-thread/components/drivers/ipc/workqueue.o
 .text._workqueue_thread_entry
                0x00000000       0x9c ./rt-thread/components/drivers/ipc/workqueue.o
 .text._workqueue_submit_work
                0x00000000      0x138 ./rt-thread/components/drivers/ipc/workqueue.o
 .text._workqueue_cancel_work
                0x00000000       0x80 ./rt-thread/components/drivers/ipc/workqueue.o
 .text._delayed_work_timeout_handler
                0x00000000       0xb4 ./rt-thread/components/drivers/ipc/workqueue.o
 .text.rt_work_init
                0x00000000       0x68 ./rt-thread/components/drivers/ipc/workqueue.o
 .text.rt_workqueue_create
                0x00000000       0x94 ./rt-thread/components/drivers/ipc/workqueue.o
 .text.rt_workqueue_destroy
                0x00000000       0x4c ./rt-thread/components/drivers/ipc/workqueue.o
 .text.rt_workqueue_dowork
                0x00000000       0x50 ./rt-thread/components/drivers/ipc/workqueue.o
 .text.rt_workqueue_submit_work
                0x00000000       0x6c ./rt-thread/components/drivers/ipc/workqueue.o
 .text.rt_workqueue_urgent_work
                0x00000000       0x94 ./rt-thread/components/drivers/ipc/workqueue.o
 .text.rt_workqueue_cancel_work
                0x00000000       0x4c ./rt-thread/components/drivers/ipc/workqueue.o
 .text.rt_workqueue_cancel_work_sync
                0x00000000       0x68 ./rt-thread/components/drivers/ipc/workqueue.o
 .text.rt_workqueue_cancel_all_work
                0x00000000       0x74 ./rt-thread/components/drivers/ipc/workqueue.o
 .rodata.__FUNCTION__.5872
                0x00000000       0x18 ./rt-thread/components/drivers/ipc/workqueue.o
 .rodata.__FUNCTION__.5894
                0x00000000       0x1e ./rt-thread/components/drivers/ipc/workqueue.o
 .rodata.__FUNCTION__.5902
                0x00000000        0xd ./rt-thread/components/drivers/ipc/workqueue.o
 .rodata.__FUNCTION__.5912
                0x00000000       0x15 ./rt-thread/components/drivers/ipc/workqueue.o
 .rodata.__FUNCTION__.5917
                0x00000000       0x14 ./rt-thread/components/drivers/ipc/workqueue.o
 .rodata.__FUNCTION__.5923
                0x00000000       0x19 ./rt-thread/components/drivers/ipc/workqueue.o
 .rodata.__FUNCTION__.5929
                0x00000000       0x19 ./rt-thread/components/drivers/ipc/workqueue.o
 .rodata.__FUNCTION__.5934
                0x00000000       0x19 ./rt-thread/components/drivers/ipc/workqueue.o
 .rodata.__FUNCTION__.5939
                0x00000000       0x1e ./rt-thread/components/drivers/ipc/workqueue.o
 .rodata.__FUNCTION__.5944
                0x00000000       0x1d ./rt-thread/components/drivers/ipc/workqueue.o
 .debug_info    0x00000000      0xb04 ./rt-thread/components/drivers/ipc/workqueue.o
 .debug_abbrev  0x00000000      0x20e ./rt-thread/components/drivers/ipc/workqueue.o
 .debug_loc     0x00000000      0x5b8 ./rt-thread/components/drivers/ipc/workqueue.o
 .debug_aranges
                0x00000000       0xa8 ./rt-thread/components/drivers/ipc/workqueue.o
 .debug_ranges  0x00000000       0x98 ./rt-thread/components/drivers/ipc/workqueue.o
 .debug_line    0x00000000      0x4c2 ./rt-thread/components/drivers/ipc/workqueue.o
 .debug_str     0x00000000      0x5f9 ./rt-thread/components/drivers/ipc/workqueue.o
 .comment       0x00000000       0x6f ./rt-thread/components/drivers/ipc/workqueue.o
 .debug_frame   0x00000000      0x2ac ./rt-thread/components/drivers/ipc/workqueue.o
 .ARM.attributes
                0x00000000       0x39 ./rt-thread/components/drivers/ipc/workqueue.o
 .text          0x00000000        0x0 ./rt-thread/components/dfs/src/dfs.o
 .data          0x00000000        0x0 ./rt-thread/components/dfs/src/dfs.o
 .bss           0x00000000        0x0 ./rt-thread/components/dfs/src/dfs.o
 .text          0x00000000        0x0 ./rt-thread/components/dfs/src/dfs_file.o
 .data          0x00000000        0x0 ./rt-thread/components/dfs/src/dfs_file.o
 .bss           0x00000000        0x0 ./rt-thread/components/dfs/src/dfs_file.o
 .text.dfs_file_ioctl
                0x00000000       0x8c ./rt-thread/components/dfs/src/dfs_file.o
 .text.dfs_file_flush
                0x00000000       0x38 ./rt-thread/components/dfs/src/dfs_file.o
 .text.dfs_file_ftruncate
                0x00000000       0x60 ./rt-thread/components/dfs/src/dfs_file.o
 .text.rm       0x00000000       0x28 ./rt-thread/components/dfs/src/dfs_file.o
 .text          0x00000000        0x0 ./rt-thread/components/dfs/src/dfs_fs.o
 .data          0x00000000        0x0 ./rt-thread/components/dfs/src/dfs_fs.o
 .bss           0x00000000        0x0 ./rt-thread/components/dfs/src/dfs_fs.o
 .text.dfs_register
                0x00000000       0xc0 ./rt-thread/components/dfs/src/dfs_fs.o
 .text.dfs_filesystem_get_mounted_path
                0x00000000       0x58 ./rt-thread/components/dfs/src/dfs_fs.o
 .text.dfs_filesystem_get_partition
                0x00000000      0x150 ./rt-thread/components/dfs/src/dfs_fs.o
 .text.mkfs     0x00000000       0x1c ./rt-thread/components/dfs/src/dfs_fs.o
 .rodata.__FUNCTION__.7031
                0x00000000       0x1d ./rt-thread/components/dfs/src/dfs_fs.o
 .text          0x00000000        0x0 ./rt-thread/components/dfs/src/dfs_posix.o
 .data          0x00000000        0x0 ./rt-thread/components/dfs/src/dfs_posix.o
 .bss           0x00000000        0x0 ./rt-thread/components/dfs/src/dfs_posix.o
 .text.creat    0x00000000       0x20 ./rt-thread/components/dfs/src/dfs_posix.o
 .text.fstat    0x00000000       0x78 ./rt-thread/components/dfs/src/dfs_posix.o
 .text.fsync    0x00000000       0x3c ./rt-thread/components/dfs/src/dfs_posix.o
 .text.fcntl    0x00000000       0x6c ./rt-thread/components/dfs/src/dfs_posix.o
 .text.ioctl    0x00000000       0x34 ./rt-thread/components/dfs/src/dfs_posix.o
 .text.ftruncate
                0x00000000       0x74 ./rt-thread/components/dfs/src/dfs_posix.o
 .text.statfs   0x00000000       0x30 ./rt-thread/components/dfs/src/dfs_posix.o
 .text.rmdir    0x00000000       0x2c ./rt-thread/components/dfs/src/dfs_posix.o
 .text.telldir  0x00000000       0x4c ./rt-thread/components/dfs/src/dfs_posix.o
 .text.seekdir  0x00000000       0x54 ./rt-thread/components/dfs/src/dfs_posix.o
 .text.access   0x00000000       0x2c ./rt-thread/components/dfs/src/dfs_posix.o
 .text          0x00000000        0x0 ./libraries/Drivers/drv_common.o
 .data          0x00000000        0x0 ./libraries/Drivers/drv_common.o
 .bss           0x00000000        0x0 ./libraries/Drivers/drv_common.o
 .text.rt_hw_us_delay
                0x00000000       0x84 ./libraries/Drivers/drv_common.o
 .text          0x00000000        0x0 ./libraries/Drivers/drv_gpio.o
 .data          0x00000000        0x0 ./libraries/Drivers/drv_gpio.o
 .bss           0x00000000        0x0 ./libraries/Drivers/drv_gpio.o
 .text          0x00000000        0x0 ./libraries/Drivers/drv_usart.o
 .data          0x00000000        0x0 ./libraries/Drivers/drv_usart.o
 .bss           0x00000000        0x0 ./libraries/Drivers/drv_usart.o
 .text          0x00000000       0x14 ./libraries/APM32F4xx_Library/Device/Geehy/APM32F4xx/Source/gcc/startup_apm32f40x.o
 .data          0x00000000        0x0 ./libraries/APM32F4xx_Library/Device/Geehy/APM32F4xx/Source/gcc/startup_apm32f40x.o
 .bss           0x00000000        0x0 ./libraries/APM32F4xx_Library/Device/Geehy/APM32F4xx/Source/gcc/startup_apm32f40x.o
 .text          0x00000000        0x0 ./libraries/APM32F4xx_Library/Device/Geehy/APM32F4xx/Source/system_apm32f4xx.o
 .data          0x00000000        0x0 ./libraries/APM32F4xx_Library/Device/Geehy/APM32F4xx/Source/system_apm32f4xx.o
 .bss           0x00000000        0x0 ./libraries/APM32F4xx_Library/Device/Geehy/APM32F4xx/Source/system_apm32f4xx.o
 .data.SystemCoreClock
                0x00000000        0x4 ./libraries/APM32F4xx_Library/Device/Geehy/APM32F4xx/Source/system_apm32f4xx.o
 .data.AHBPrescTable
                0x00000000       0x10 ./libraries/APM32F4xx_Library/Device/Geehy/APM32F4xx/Source/system_apm32f4xx.o
 .text.SystemCoreClockUpdate
                0x00000000       0xec ./libraries/APM32F4xx_Library/Device/Geehy/APM32F4xx/Source/system_apm32f4xx.o
 .text          0x00000000        0x0 ./libraries/APM32F4xx_Library/APM32F4xx_StdPeriphDriver/src/apm32f4xx_eint.o
 .data          0x00000000        0x0 ./libraries/APM32F4xx_Library/APM32F4xx_StdPeriphDriver/src/apm32f4xx_eint.o
 .bss           0x00000000        0x0 ./libraries/APM32F4xx_Library/APM32F4xx_StdPeriphDriver/src/apm32f4xx_eint.o
 .text.EINT_Reset
                0x00000000       0x34 ./libraries/APM32F4xx_Library/APM32F4xx_StdPeriphDriver/src/apm32f4xx_eint.o
 .text.EINT_Config
                0x00000000       0xe4 ./libraries/APM32F4xx_Library/APM32F4xx_StdPeriphDriver/src/apm32f4xx_eint.o
 .text.EINT_ConfigStructInit
                0x00000000       0x2c ./libraries/APM32F4xx_Library/APM32F4xx_StdPeriphDriver/src/apm32f4xx_eint.o
 .text.EINT_SelectSWInterrupt
                0x00000000       0x24 ./libraries/APM32F4xx_Library/APM32F4xx_StdPeriphDriver/src/apm32f4xx_eint.o
 .text.EINT_ReadStatusFlag
                0x00000000       0x34 ./libraries/APM32F4xx_Library/APM32F4xx_StdPeriphDriver/src/apm32f4xx_eint.o
 .text.EINT_ClearStatusFlag
                0x00000000       0x20 ./libraries/APM32F4xx_Library/APM32F4xx_StdPeriphDriver/src/apm32f4xx_eint.o
 .text          0x00000000        0x0 ./libraries/APM32F4xx_Library/APM32F4xx_StdPeriphDriver/src/apm32f4xx_gpio.o
 .data          0x00000000        0x0 ./libraries/APM32F4xx_Library/APM32F4xx_StdPeriphDriver/src/apm32f4xx_gpio.o
 .bss           0x00000000        0x0 ./libraries/APM32F4xx_Library/APM32F4xx_StdPeriphDriver/src/apm32f4xx_gpio.o
 .text.GPIO_Reset
                0x00000000       0xe8 ./libraries/APM32F4xx_Library/APM32F4xx_StdPeriphDriver/src/apm32f4xx_gpio.o
 .text.GPIO_ConfigStructInit
                0x00000000       0x34 ./libraries/APM32F4xx_Library/APM32F4xx_StdPeriphDriver/src/apm32f4xx_gpio.o
 .text.GPIO_ConfigPinLock
                0x00000000       0x40 ./libraries/APM32F4xx_Library/APM32F4xx_StdPeriphDriver/src/apm32f4xx_gpio.o
 .text.GPIO_ReadInputPort
                0x00000000       0x1c ./libraries/APM32F4xx_Library/APM32F4xx_StdPeriphDriver/src/apm32f4xx_gpio.o
 .text.GPIO_ReadOutputBit
                0x00000000       0x34 ./libraries/APM32F4xx_Library/APM32F4xx_StdPeriphDriver/src/apm32f4xx_gpio.o
 .text.GPIO_ReadOutputPort
                0x00000000       0x1c ./libraries/APM32F4xx_Library/APM32F4xx_StdPeriphDriver/src/apm32f4xx_gpio.o
 .text.GPIO_SetBit
                0x00000000       0x20 ./libraries/APM32F4xx_Library/APM32F4xx_StdPeriphDriver/src/apm32f4xx_gpio.o
 .text.GPIO_ResetBit
                0x00000000       0x20 ./libraries/APM32F4xx_Library/APM32F4xx_StdPeriphDriver/src/apm32f4xx_gpio.o
 .text.GPIO_WriteOutputPort
                0x00000000       0x20 ./libraries/APM32F4xx_Library/APM32F4xx_StdPeriphDriver/src/apm32f4xx_gpio.o
 .text.GPIO_ToggleBit
                0x00000000       0x24 ./libraries/APM32F4xx_Library/APM32F4xx_StdPeriphDriver/src/apm32f4xx_gpio.o
 .text          0x00000000        0x0 ./libraries/APM32F4xx_Library/APM32F4xx_StdPeriphDriver/src/apm32f4xx_misc.o
 .data          0x00000000        0x0 ./libraries/APM32F4xx_Library/APM32F4xx_StdPeriphDriver/src/apm32f4xx_misc.o
 .bss           0x00000000        0x0 ./libraries/APM32F4xx_Library/APM32F4xx_StdPeriphDriver/src/apm32f4xx_misc.o
 .text.NVIC_ConfigVectorTable
                0x00000000       0x2c ./libraries/APM32F4xx_Library/APM32F4xx_StdPeriphDriver/src/apm32f4xx_misc.o
 .text.NVIC_SetSystemLowPower
                0x00000000       0x28 ./libraries/APM32F4xx_Library/APM32F4xx_StdPeriphDriver/src/apm32f4xx_misc.o
 .text.NVIC_ResetystemLowPower
                0x00000000       0x28 ./libraries/APM32F4xx_Library/APM32F4xx_StdPeriphDriver/src/apm32f4xx_misc.o
 .text.SysTick_ConfigCLKSource
                0x00000000       0x3c ./libraries/APM32F4xx_Library/APM32F4xx_StdPeriphDriver/src/apm32f4xx_misc.o
 .text          0x00000000        0x0 ./libraries/APM32F4xx_Library/APM32F4xx_StdPeriphDriver/src/apm32f4xx_rcm.o
 .data          0x00000000        0x0 ./libraries/APM32F4xx_Library/APM32F4xx_StdPeriphDriver/src/apm32f4xx_rcm.o
 .bss           0x00000000        0x0 ./libraries/APM32F4xx_Library/APM32F4xx_StdPeriphDriver/src/apm32f4xx_rcm.o
 .text.RCM_Reset
                0x00000000       0x58 ./libraries/APM32F4xx_Library/APM32F4xx_StdPeriphDriver/src/apm32f4xx_rcm.o
 .text.RCM_ConfigHSE
                0x00000000       0x5c ./libraries/APM32F4xx_Library/APM32F4xx_StdPeriphDriver/src/apm32f4xx_rcm.o
 .text.RCM_WaitHSEReady
                0x00000000       0x40 ./libraries/APM32F4xx_Library/APM32F4xx_StdPeriphDriver/src/apm32f4xx_rcm.o
 .text.RCM_ConfigHSITrim
                0x00000000       0x2c ./libraries/APM32F4xx_Library/APM32F4xx_StdPeriphDriver/src/apm32f4xx_rcm.o
 .text.RCM_EnableHSI
                0x00000000       0x1c ./libraries/APM32F4xx_Library/APM32F4xx_StdPeriphDriver/src/apm32f4xx_rcm.o
 .text.RCM_DisableHSI
                0x00000000       0x1c ./libraries/APM32F4xx_Library/APM32F4xx_StdPeriphDriver/src/apm32f4xx_rcm.o
 .text.RCM_ConfigLSE
                0x00000000       0x5c ./libraries/APM32F4xx_Library/APM32F4xx_StdPeriphDriver/src/apm32f4xx_rcm.o
 .text.RCM_EnableLSI
                0x00000000       0x1c ./libraries/APM32F4xx_Library/APM32F4xx_StdPeriphDriver/src/apm32f4xx_rcm.o
 .text.RCM_DisableLSI
                0x00000000       0x1c ./libraries/APM32F4xx_Library/APM32F4xx_StdPeriphDriver/src/apm32f4xx_rcm.o
 .text.RCM_ConfigPLL1
                0x00000000       0x80 ./libraries/APM32F4xx_Library/APM32F4xx_StdPeriphDriver/src/apm32f4xx_rcm.o
 .text.RCM_EnablePLL1
                0x00000000       0x1c ./libraries/APM32F4xx_Library/APM32F4xx_StdPeriphDriver/src/apm32f4xx_rcm.o
 .text.RCM_DisablePLL1
                0x00000000       0x1c ./libraries/APM32F4xx_Library/APM32F4xx_StdPeriphDriver/src/apm32f4xx_rcm.o
 .text.RCM_ConfigPLL2
                0x00000000       0x4c ./libraries/APM32F4xx_Library/APM32F4xx_StdPeriphDriver/src/apm32f4xx_rcm.o
 .text.RCM_EnablePLL2
                0x00000000       0x1c ./libraries/APM32F4xx_Library/APM32F4xx_StdPeriphDriver/src/apm32f4xx_rcm.o
 .text.RCM_DisablePLL2
                0x00000000       0x1c ./libraries/APM32F4xx_Library/APM32F4xx_StdPeriphDriver/src/apm32f4xx_rcm.o
 .text.RCM_EnableCSS
                0x00000000       0x1c ./libraries/APM32F4xx_Library/APM32F4xx_StdPeriphDriver/src/apm32f4xx_rcm.o
 .text.RCM_DisableCSS
                0x00000000       0x1c ./libraries/APM32F4xx_Library/APM32F4xx_StdPeriphDriver/src/apm32f4xx_rcm.o
 .text.RCM_ConfigMCO1
                0x00000000       0x44 ./libraries/APM32F4xx_Library/APM32F4xx_StdPeriphDriver/src/apm32f4xx_rcm.o
 .text.RCM_ConfigMCO2
                0x00000000       0x44 ./libraries/APM32F4xx_Library/APM32F4xx_StdPeriphDriver/src/apm32f4xx_rcm.o
 .text.RCM_ConfigSYSCLK
                0x00000000       0x2c ./libraries/APM32F4xx_Library/APM32F4xx_StdPeriphDriver/src/apm32f4xx_rcm.o
 .text.RCM_ReadSYSCLKSource
                0x00000000       0x1c ./libraries/APM32F4xx_Library/APM32F4xx_StdPeriphDriver/src/apm32f4xx_rcm.o
 .text.RCM_ConfigAHB
                0x00000000       0x2c ./libraries/APM32F4xx_Library/APM32F4xx_StdPeriphDriver/src/apm32f4xx_rcm.o
 .text.RCM_ConfigAPB1
                0x00000000       0x2c ./libraries/APM32F4xx_Library/APM32F4xx_StdPeriphDriver/src/apm32f4xx_rcm.o
 .text.RCM_ConfigAPB2
                0x00000000       0x2c ./libraries/APM32F4xx_Library/APM32F4xx_StdPeriphDriver/src/apm32f4xx_rcm.o
 .text.RCM_ConfigSDRAM
                0x00000000       0x2c ./libraries/APM32F4xx_Library/APM32F4xx_StdPeriphDriver/src/apm32f4xx_rcm.o
 .text.RCM_ConfigRTCCLK
                0x00000000       0x54 ./libraries/APM32F4xx_Library/APM32F4xx_StdPeriphDriver/src/apm32f4xx_rcm.o
 .text.RCM_EnableRTCCLK
                0x00000000       0x1c ./libraries/APM32F4xx_Library/APM32F4xx_StdPeriphDriver/src/apm32f4xx_rcm.o
 .text.RCM_DisableRTCCLK
                0x00000000       0x1c ./libraries/APM32F4xx_Library/APM32F4xx_StdPeriphDriver/src/apm32f4xx_rcm.o
 .text.RCM_EnableBackupReset
                0x00000000       0x1c ./libraries/APM32F4xx_Library/APM32F4xx_StdPeriphDriver/src/apm32f4xx_rcm.o
 .text.RCM_DisableBackupReset
                0x00000000       0x1c ./libraries/APM32F4xx_Library/APM32F4xx_StdPeriphDriver/src/apm32f4xx_rcm.o
 .text.RCM_ConfigI2SCLK
                0x00000000       0x2c ./libraries/APM32F4xx_Library/APM32F4xx_StdPeriphDriver/src/apm32f4xx_rcm.o
 .text.RCM_DisableAHB1PeriphClock
                0x00000000       0x28 ./libraries/APM32F4xx_Library/APM32F4xx_StdPeriphDriver/src/apm32f4xx_rcm.o
 .text.RCM_EnableAHB2PeriphClock
                0x00000000       0x24 ./libraries/APM32F4xx_Library/APM32F4xx_StdPeriphDriver/src/apm32f4xx_rcm.o
 .text.RCM_DisableAHB2PeriphClock
                0x00000000       0x28 ./libraries/APM32F4xx_Library/APM32F4xx_StdPeriphDriver/src/apm32f4xx_rcm.o
 .text.RCM_EnableAPB1PeriphClock
                0x00000000       0x24 ./libraries/APM32F4xx_Library/APM32F4xx_StdPeriphDriver/src/apm32f4xx_rcm.o
 .text.RCM_DisableAPB1PeriphClock
                0x00000000       0x28 ./libraries/APM32F4xx_Library/APM32F4xx_StdPeriphDriver/src/apm32f4xx_rcm.o
 .text.RCM_DisableAPB2PeriphClock
                0x00000000       0x28 ./libraries/APM32F4xx_Library/APM32F4xx_StdPeriphDriver/src/apm32f4xx_rcm.o
 .text.RCM_EnableAHB1PeriphReset
                0x00000000       0x24 ./libraries/APM32F4xx_Library/APM32F4xx_StdPeriphDriver/src/apm32f4xx_rcm.o
 .text.RCM_DisableAHB1PeriphReset
                0x00000000       0x28 ./libraries/APM32F4xx_Library/APM32F4xx_StdPeriphDriver/src/apm32f4xx_rcm.o
 .text.RCM_EnableAHB2PeriphReset
                0x00000000       0x24 ./libraries/APM32F4xx_Library/APM32F4xx_StdPeriphDriver/src/apm32f4xx_rcm.o
 .text.RCM_DisableAHB2PeriphReset
                0x00000000       0x28 ./libraries/APM32F4xx_Library/APM32F4xx_StdPeriphDriver/src/apm32f4xx_rcm.o
 .text.RCM_EnableAPB1PeriphReset
                0x00000000       0x24 ./libraries/APM32F4xx_Library/APM32F4xx_StdPeriphDriver/src/apm32f4xx_rcm.o
 .text.RCM_DisableAPB1PeriphReset
                0x00000000       0x28 ./libraries/APM32F4xx_Library/APM32F4xx_StdPeriphDriver/src/apm32f4xx_rcm.o
 .text.RCM_EnableAPB2PeriphReset
                0x00000000       0x24 ./libraries/APM32F4xx_Library/APM32F4xx_StdPeriphDriver/src/apm32f4xx_rcm.o
 .text.RCM_DisableAPB2PeriphReset
                0x00000000       0x28 ./libraries/APM32F4xx_Library/APM32F4xx_StdPeriphDriver/src/apm32f4xx_rcm.o
 .text.RCM_EnableAHB1PeriphClockLPMode
                0x00000000       0x24 ./libraries/APM32F4xx_Library/APM32F4xx_StdPeriphDriver/src/apm32f4xx_rcm.o
 .text.RCM_DisableAHB1PeriphClockLPMode
                0x00000000       0x28 ./libraries/APM32F4xx_Library/APM32F4xx_StdPeriphDriver/src/apm32f4xx_rcm.o
 .text.RCM_EnableAHB2PeriphClockLPMode
                0x00000000       0x24 ./libraries/APM32F4xx_Library/APM32F4xx_StdPeriphDriver/src/apm32f4xx_rcm.o
 .text.RCM_DisableAHB2PeriphClockLPMode
                0x00000000       0x28 ./libraries/APM32F4xx_Library/APM32F4xx_StdPeriphDriver/src/apm32f4xx_rcm.o
 .text.RCM_EnableAPB1PeriphClockLPMode
                0x00000000       0x24 ./libraries/APM32F4xx_Library/APM32F4xx_StdPeriphDriver/src/apm32f4xx_rcm.o
 .text.RCM_DisableAPB1PeriphClockLPMode
                0x00000000       0x28 ./libraries/APM32F4xx_Library/APM32F4xx_StdPeriphDriver/src/apm32f4xx_rcm.o
 .text.RCM_EnableAPB2PeriphClockLPMode
                0x00000000       0x24 ./libraries/APM32F4xx_Library/APM32F4xx_StdPeriphDriver/src/apm32f4xx_rcm.o
 .text.RCM_DisableAPB2PeriphClockLPMode
                0x00000000       0x28 ./libraries/APM32F4xx_Library/APM32F4xx_StdPeriphDriver/src/apm32f4xx_rcm.o
 .text.RCM_EnableInterrupt
                0x00000000       0x2c ./libraries/APM32F4xx_Library/APM32F4xx_StdPeriphDriver/src/apm32f4xx_rcm.o
 .text.RCM_DisableInterrupt
                0x00000000       0x2c ./libraries/APM32F4xx_Library/APM32F4xx_StdPeriphDriver/src/apm32f4xx_rcm.o
 .text.RCM_ReadStatusFlag
                0x00000000       0x68 ./libraries/APM32F4xx_Library/APM32F4xx_StdPeriphDriver/src/apm32f4xx_rcm.o
 .text.RCM_ClearStatusFlag
                0x00000000       0x1c ./libraries/APM32F4xx_Library/APM32F4xx_StdPeriphDriver/src/apm32f4xx_rcm.o
 .text.RCM_ReadIntFlag
                0x00000000       0x2c ./libraries/APM32F4xx_Library/APM32F4xx_StdPeriphDriver/src/apm32f4xx_rcm.o
 .text.RCM_ClearIntFlag
                0x00000000       0x2c ./libraries/APM32F4xx_Library/APM32F4xx_StdPeriphDriver/src/apm32f4xx_rcm.o
 .text          0x00000000        0x0 ./libraries/APM32F4xx_Library/APM32F4xx_StdPeriphDriver/src/apm32f4xx_usart.o
 .data          0x00000000        0x0 ./libraries/APM32F4xx_Library/APM32F4xx_StdPeriphDriver/src/apm32f4xx_usart.o
 .bss           0x00000000        0x0 ./libraries/APM32F4xx_Library/APM32F4xx_StdPeriphDriver/src/apm32f4xx_usart.o
 .text.USART_Reset
                0x00000000       0xf8 ./libraries/APM32F4xx_Library/APM32F4xx_StdPeriphDriver/src/apm32f4xx_usart.o
 .text.USART_ConfigStructInit
                0x00000000       0x3c ./libraries/APM32F4xx_Library/APM32F4xx_StdPeriphDriver/src/apm32f4xx_usart.o
 .text.USART_ConfigClock
                0x00000000       0x68 ./libraries/APM32F4xx_Library/APM32F4xx_StdPeriphDriver/src/apm32f4xx_usart.o
 .text.USART_ConfigClockStructInit
                0x00000000       0x2c ./libraries/APM32F4xx_Library/APM32F4xx_StdPeriphDriver/src/apm32f4xx_usart.o
 .text.USART_Disable
                0x00000000       0x20 ./libraries/APM32F4xx_Library/APM32F4xx_StdPeriphDriver/src/apm32f4xx_usart.o
 .text.USART_ConfigPrescaler
                0x00000000       0x24 ./libraries/APM32F4xx_Library/APM32F4xx_StdPeriphDriver/src/apm32f4xx_usart.o
 .text.USART_EnableOverSampling8
                0x00000000       0x20 ./libraries/APM32F4xx_Library/APM32F4xx_StdPeriphDriver/src/apm32f4xx_usart.o
 .text.USART_DisableOverSampling8
                0x00000000       0x20 ./libraries/APM32F4xx_Library/APM32F4xx_StdPeriphDriver/src/apm32f4xx_usart.o
 .text.USART_EnableOverSampling
                0x00000000       0x20 ./libraries/APM32F4xx_Library/APM32F4xx_StdPeriphDriver/src/apm32f4xx_usart.o
 .text.USART_DisableOverSampling
                0x00000000       0x20 ./libraries/APM32F4xx_Library/APM32F4xx_StdPeriphDriver/src/apm32f4xx_usart.o
 .text.USART_Address
                0x00000000       0x2c ./libraries/APM32F4xx_Library/APM32F4xx_StdPeriphDriver/src/apm32f4xx_usart.o
 .text.USART_EnableMuteMode
                0x00000000       0x20 ./libraries/APM32F4xx_Library/APM32F4xx_StdPeriphDriver/src/apm32f4xx_usart.o
 .text.USART_DisableMuteMode
                0x00000000       0x20 ./libraries/APM32F4xx_Library/APM32F4xx_StdPeriphDriver/src/apm32f4xx_usart.o
 .text.USART_ConfigWakeUp
                0x00000000       0x2c ./libraries/APM32F4xx_Library/APM32F4xx_StdPeriphDriver/src/apm32f4xx_usart.o
 .text.USART_ConfigLINBreakDetectLength
                0x00000000       0x2c ./libraries/APM32F4xx_Library/APM32F4xx_StdPeriphDriver/src/apm32f4xx_usart.o
 .text.USART_EnableLIN
                0x00000000       0x20 ./libraries/APM32F4xx_Library/APM32F4xx_StdPeriphDriver/src/apm32f4xx_usart.o
 .text.USART_DisableLIN
                0x00000000       0x20 ./libraries/APM32F4xx_Library/APM32F4xx_StdPeriphDriver/src/apm32f4xx_usart.o
 .text.USART_TxBreak
                0x00000000       0x20 ./libraries/APM32F4xx_Library/APM32F4xx_StdPeriphDriver/src/apm32f4xx_usart.o
 .text.USART_EnableHalfDuplex
                0x00000000       0x20 ./libraries/APM32F4xx_Library/APM32F4xx_StdPeriphDriver/src/apm32f4xx_usart.o
 .text.USART_DisableHalfDuplex
                0x00000000       0x20 ./libraries/APM32F4xx_Library/APM32F4xx_StdPeriphDriver/src/apm32f4xx_usart.o
 .text.USART_ConfigGuardTime
                0x00000000       0x24 ./libraries/APM32F4xx_Library/APM32F4xx_StdPeriphDriver/src/apm32f4xx_usart.o
 .text.USART_EnableSmartCard
                0x00000000       0x20 ./libraries/APM32F4xx_Library/APM32F4xx_StdPeriphDriver/src/apm32f4xx_usart.o
 .text.USART_DisableSmartCard
                0x00000000       0x20 ./libraries/APM32F4xx_Library/APM32F4xx_StdPeriphDriver/src/apm32f4xx_usart.o
 .text.USART_EnableSmartCardNACK
                0x00000000       0x20 ./libraries/APM32F4xx_Library/APM32F4xx_StdPeriphDriver/src/apm32f4xx_usart.o
 .text.USART_DisableSmartCardNACK
                0x00000000       0x20 ./libraries/APM32F4xx_Library/APM32F4xx_StdPeriphDriver/src/apm32f4xx_usart.o
 .text.USART_ConfigIrDA
                0x00000000       0x2c ./libraries/APM32F4xx_Library/APM32F4xx_StdPeriphDriver/src/apm32f4xx_usart.o
 .text.USART_EnableIrDA
                0x00000000       0x20 ./libraries/APM32F4xx_Library/APM32F4xx_StdPeriphDriver/src/apm32f4xx_usart.o
 .text.USART_DisableIrDA
                0x00000000       0x20 ./libraries/APM32F4xx_Library/APM32F4xx_StdPeriphDriver/src/apm32f4xx_usart.o
 .text.USART_EnableDMA
                0x00000000       0x40 ./libraries/APM32F4xx_Library/APM32F4xx_StdPeriphDriver/src/apm32f4xx_usart.o
 .text.USART_DisableDMA
                0x00000000       0x4c ./libraries/APM32F4xx_Library/APM32F4xx_StdPeriphDriver/src/apm32f4xx_usart.o
 .text          0x00000000        0x0 ./board/board.o
 .data          0x00000000        0x0 ./board/board.o
 .bss           0x00000000        0x0 ./board/board.o
 .text          0x00000000        0x0 ./applications/main.o
 .data          0x00000000        0x0 ./applications/main.o
 .bss           0x00000000        0x0 ./applications/main.o
 .text          0x00000000        0x0 c:/rt-threadstudio/repo/extract/toolchain_support_packages/arm/gnu_tools_for_arm_embedded_processors/5.4.1/bin/../lib/gcc/arm-none-eabi/5.4.1/../../../../arm-none-eabi/lib/armv7e-m/fpu\libc.a(lib_a-atoi.o)
 .data          0x00000000        0x0 c:/rt-threadstudio/repo/extract/toolchain_support_packages/arm/gnu_tools_for_arm_embedded_processors/5.4.1/bin/../lib/gcc/arm-none-eabi/5.4.1/../../../../arm-none-eabi/lib/armv7e-m/fpu\libc.a(lib_a-atoi.o)
 .bss           0x00000000        0x0 c:/rt-threadstudio/repo/extract/toolchain_support_packages/arm/gnu_tools_for_arm_embedded_processors/5.4.1/bin/../lib/gcc/arm-none-eabi/5.4.1/../../../../arm-none-eabi/lib/armv7e-m/fpu\libc.a(lib_a-atoi.o)
 .text._atoi_r  0x00000000        0x8 c:/rt-threadstudio/repo/extract/toolchain_support_packages/arm/gnu_tools_for_arm_embedded_processors/5.4.1/bin/../lib/gcc/arm-none-eabi/5.4.1/../../../../arm-none-eabi/lib/armv7e-m/fpu\libc.a(lib_a-atoi.o)
 .text          0x00000000        0x0 c:/rt-threadstudio/repo/extract/toolchain_support_packages/arm/gnu_tools_for_arm_embedded_processors/5.4.1/bin/../lib/gcc/arm-none-eabi/5.4.1/../../../../arm-none-eabi/lib/armv7e-m/fpu\libc.a(lib_a-exit.o)
 .data          0x00000000        0x0 c:/rt-threadstudio/repo/extract/toolchain_support_packages/arm/gnu_tools_for_arm_embedded_processors/5.4.1/bin/../lib/gcc/arm-none-eabi/5.4.1/../../../../arm-none-eabi/lib/armv7e-m/fpu\libc.a(lib_a-exit.o)
 .bss           0x00000000        0x0 c:/rt-threadstudio/repo/extract/toolchain_support_packages/arm/gnu_tools_for_arm_embedded_processors/5.4.1/bin/../lib/gcc/arm-none-eabi/5.4.1/../../../../arm-none-eabi/lib/armv7e-m/fpu\libc.a(lib_a-exit.o)
 .text.exit     0x00000000       0x20 c:/rt-threadstudio/repo/extract/toolchain_support_packages/arm/gnu_tools_for_arm_embedded_processors/5.4.1/bin/../lib/gcc/arm-none-eabi/5.4.1/../../../../arm-none-eabi/lib/armv7e-m/fpu\libc.a(lib_a-exit.o)
 .debug_frame   0x00000000       0x28 c:/rt-threadstudio/repo/extract/toolchain_support_packages/arm/gnu_tools_for_arm_embedded_processors/5.4.1/bin/../lib/gcc/arm-none-eabi/5.4.1/../../../../arm-none-eabi/lib/armv7e-m/fpu\libc.a(lib_a-exit.o)
 .ARM.attributes
                0x00000000       0x34 c:/rt-threadstudio/repo/extract/toolchain_support_packages/arm/gnu_tools_for_arm_embedded_processors/5.4.1/bin/../lib/gcc/arm-none-eabi/5.4.1/../../../../arm-none-eabi/lib/armv7e-m/fpu\libc.a(lib_a-exit.o)
 .text          0x00000000        0x0 c:/rt-threadstudio/repo/extract/toolchain_support_packages/arm/gnu_tools_for_arm_embedded_processors/5.4.1/bin/../lib/gcc/arm-none-eabi/5.4.1/../../../../arm-none-eabi/lib/armv7e-m/fpu\libc.a(lib_a-impure.o)
 .data          0x00000000        0x0 c:/rt-threadstudio/repo/extract/toolchain_support_packages/arm/gnu_tools_for_arm_embedded_processors/5.4.1/bin/../lib/gcc/arm-none-eabi/5.4.1/../../../../arm-none-eabi/lib/armv7e-m/fpu\libc.a(lib_a-impure.o)
 .bss           0x00000000        0x0 c:/rt-threadstudio/repo/extract/toolchain_support_packages/arm/gnu_tools_for_arm_embedded_processors/5.4.1/bin/../lib/gcc/arm-none-eabi/5.4.1/../../../../arm-none-eabi/lib/armv7e-m/fpu\libc.a(lib_a-impure.o)
 .rodata._global_impure_ptr
                0x00000000        0x4 c:/rt-threadstudio/repo/extract/toolchain_support_packages/arm/gnu_tools_for_arm_embedded_processors/5.4.1/bin/../lib/gcc/arm-none-eabi/5.4.1/../../../../arm-none-eabi/lib/armv7e-m/fpu\libc.a(lib_a-impure.o)
 .text          0x00000000        0x0 c:/rt-threadstudio/repo/extract/toolchain_support_packages/arm/gnu_tools_for_arm_embedded_processors/5.4.1/bin/../lib/gcc/arm-none-eabi/5.4.1/../../../../arm-none-eabi/lib/armv7e-m/fpu\libc.a(lib_a-locale.o)
 .data          0x00000000        0x0 c:/rt-threadstudio/repo/extract/toolchain_support_packages/arm/gnu_tools_for_arm_embedded_processors/5.4.1/bin/../lib/gcc/arm-none-eabi/5.4.1/../../../../arm-none-eabi/lib/armv7e-m/fpu\libc.a(lib_a-locale.o)
 .bss           0x00000000        0x0 c:/rt-threadstudio/repo/extract/toolchain_support_packages/arm/gnu_tools_for_arm_embedded_processors/5.4.1/bin/../lib/gcc/arm-none-eabi/5.4.1/../../../../arm-none-eabi/lib/armv7e-m/fpu\libc.a(lib_a-locale.o)
 .text._setlocale_r
                0x00000000       0x40 c:/rt-threadstudio/repo/extract/toolchain_support_packages/arm/gnu_tools_for_arm_embedded_processors/5.4.1/bin/../lib/gcc/arm-none-eabi/5.4.1/../../../../arm-none-eabi/lib/armv7e-m/fpu\libc.a(lib_a-locale.o)
 .text.__locale_mb_cur_max
                0x00000000       0x1c c:/rt-threadstudio/repo/extract/toolchain_support_packages/arm/gnu_tools_for_arm_embedded_processors/5.4.1/bin/../lib/gcc/arm-none-eabi/5.4.1/../../../../arm-none-eabi/lib/armv7e-m/fpu\libc.a(lib_a-locale.o)
 .text.setlocale
                0x00000000       0x10 c:/rt-threadstudio/repo/extract/toolchain_support_packages/arm/gnu_tools_for_arm_embedded_processors/5.4.1/bin/../lib/gcc/arm-none-eabi/5.4.1/../../../../arm-none-eabi/lib/armv7e-m/fpu\libc.a(lib_a-locale.o)
 .bss._PathLocale
                0x00000000        0x4 c:/rt-threadstudio/repo/extract/toolchain_support_packages/arm/gnu_tools_for_arm_embedded_processors/5.4.1/bin/../lib/gcc/arm-none-eabi/5.4.1/../../../../arm-none-eabi/lib/armv7e-m/fpu\libc.a(lib_a-locale.o)
 .text          0x00000000        0x0 c:/rt-threadstudio/repo/extract/toolchain_support_packages/arm/gnu_tools_for_arm_embedded_processors/5.4.1/bin/../lib/gcc/arm-none-eabi/5.4.1/../../../../arm-none-eabi/lib/armv7e-m/fpu\libc.a(lib_a-malloc.o)
 .data          0x00000000        0x0 c:/rt-threadstudio/repo/extract/toolchain_support_packages/arm/gnu_tools_for_arm_embedded_processors/5.4.1/bin/../lib/gcc/arm-none-eabi/5.4.1/../../../../arm-none-eabi/lib/armv7e-m/fpu\libc.a(lib_a-malloc.o)
 .bss           0x00000000        0x0 c:/rt-threadstudio/repo/extract/toolchain_support_packages/arm/gnu_tools_for_arm_embedded_processors/5.4.1/bin/../lib/gcc/arm-none-eabi/5.4.1/../../../../arm-none-eabi/lib/armv7e-m/fpu\libc.a(lib_a-malloc.o)
 .text.malloc   0x00000000       0x10 c:/rt-threadstudio/repo/extract/toolchain_support_packages/arm/gnu_tools_for_arm_embedded_processors/5.4.1/bin/../lib/gcc/arm-none-eabi/5.4.1/../../../../arm-none-eabi/lib/armv7e-m/fpu\libc.a(lib_a-malloc.o)
 .text.free     0x00000000       0x10 c:/rt-threadstudio/repo/extract/toolchain_support_packages/arm/gnu_tools_for_arm_embedded_processors/5.4.1/bin/../lib/gcc/arm-none-eabi/5.4.1/../../../../arm-none-eabi/lib/armv7e-m/fpu\libc.a(lib_a-malloc.o)
 .debug_frame   0x00000000       0x30 c:/rt-threadstudio/repo/extract/toolchain_support_packages/arm/gnu_tools_for_arm_embedded_processors/5.4.1/bin/../lib/gcc/arm-none-eabi/5.4.1/../../../../arm-none-eabi/lib/armv7e-m/fpu\libc.a(lib_a-malloc.o)
 .ARM.attributes
                0x00000000       0x34 c:/rt-threadstudio/repo/extract/toolchain_support_packages/arm/gnu_tools_for_arm_embedded_processors/5.4.1/bin/../lib/gcc/arm-none-eabi/5.4.1/../../../../arm-none-eabi/lib/armv7e-m/fpu\libc.a(lib_a-malloc.o)
 .text          0x00000000        0x0 c:/rt-threadstudio/repo/extract/toolchain_support_packages/arm/gnu_tools_for_arm_embedded_processors/5.4.1/bin/../lib/gcc/arm-none-eabi/5.4.1/../../../../arm-none-eabi/lib/armv7e-m/fpu\libc.a(lib_a-mbtowc_r.o)
 .data          0x00000000        0x0 c:/rt-threadstudio/repo/extract/toolchain_support_packages/arm/gnu_tools_for_arm_embedded_processors/5.4.1/bin/../lib/gcc/arm-none-eabi/5.4.1/../../../../arm-none-eabi/lib/armv7e-m/fpu\libc.a(lib_a-mbtowc_r.o)
 .bss           0x00000000        0x0 c:/rt-threadstudio/repo/extract/toolchain_support_packages/arm/gnu_tools_for_arm_embedded_processors/5.4.1/bin/../lib/gcc/arm-none-eabi/5.4.1/../../../../arm-none-eabi/lib/armv7e-m/fpu\libc.a(lib_a-mbtowc_r.o)
 .text._mbtowc_r
                0x00000000       0x24 c:/rt-threadstudio/repo/extract/toolchain_support_packages/arm/gnu_tools_for_arm_embedded_processors/5.4.1/bin/../lib/gcc/arm-none-eabi/5.4.1/../../../../arm-none-eabi/lib/armv7e-m/fpu\libc.a(lib_a-mbtowc_r.o)
 .text          0x00000000        0x0 c:/rt-threadstudio/repo/extract/toolchain_support_packages/arm/gnu_tools_for_arm_embedded_processors/5.4.1/bin/../lib/gcc/arm-none-eabi/5.4.1/../../../../arm-none-eabi/lib/armv7e-m/fpu\libc.a(lib_a-memcmp.o)
 .data          0x00000000        0x0 c:/rt-threadstudio/repo/extract/toolchain_support_packages/arm/gnu_tools_for_arm_embedded_processors/5.4.1/bin/../lib/gcc/arm-none-eabi/5.4.1/../../../../arm-none-eabi/lib/armv7e-m/fpu\libc.a(lib_a-memcmp.o)
 .bss           0x00000000        0x0 c:/rt-threadstudio/repo/extract/toolchain_support_packages/arm/gnu_tools_for_arm_embedded_processors/5.4.1/bin/../lib/gcc/arm-none-eabi/5.4.1/../../../../arm-none-eabi/lib/armv7e-m/fpu\libc.a(lib_a-memcmp.o)
 .text          0x00000000        0x0 c:/rt-threadstudio/repo/extract/toolchain_support_packages/arm/gnu_tools_for_arm_embedded_processors/5.4.1/bin/../lib/gcc/arm-none-eabi/5.4.1/../../../../arm-none-eabi/lib/armv7e-m/fpu\libc.a(lib_a-memset.o)
 .data          0x00000000        0x0 c:/rt-threadstudio/repo/extract/toolchain_support_packages/arm/gnu_tools_for_arm_embedded_processors/5.4.1/bin/../lib/gcc/arm-none-eabi/5.4.1/../../../../arm-none-eabi/lib/armv7e-m/fpu\libc.a(lib_a-memset.o)
 .bss           0x00000000        0x0 c:/rt-threadstudio/repo/extract/toolchain_support_packages/arm/gnu_tools_for_arm_embedded_processors/5.4.1/bin/../lib/gcc/arm-none-eabi/5.4.1/../../../../arm-none-eabi/lib/armv7e-m/fpu\libc.a(lib_a-memset.o)
 .text.memset   0x00000000       0x9c c:/rt-threadstudio/repo/extract/toolchain_support_packages/arm/gnu_tools_for_arm_embedded_processors/5.4.1/bin/../lib/gcc/arm-none-eabi/5.4.1/../../../../arm-none-eabi/lib/armv7e-m/fpu\libc.a(lib_a-memset.o)
 .debug_frame   0x00000000       0x34 c:/rt-threadstudio/repo/extract/toolchain_support_packages/arm/gnu_tools_for_arm_embedded_processors/5.4.1/bin/../lib/gcc/arm-none-eabi/5.4.1/../../../../arm-none-eabi/lib/armv7e-m/fpu\libc.a(lib_a-memset.o)
 .ARM.attributes
                0x00000000       0x34 c:/rt-threadstudio/repo/extract/toolchain_support_packages/arm/gnu_tools_for_arm_embedded_processors/5.4.1/bin/../lib/gcc/arm-none-eabi/5.4.1/../../../../arm-none-eabi/lib/armv7e-m/fpu\libc.a(lib_a-memset.o)
 .text          0x00000000        0x0 c:/rt-threadstudio/repo/extract/toolchain_support_packages/arm/gnu_tools_for_arm_embedded_processors/5.4.1/bin/../lib/gcc/arm-none-eabi/5.4.1/../../../../arm-none-eabi/lib/armv7e-m/fpu\libc.a(lib_a-strchr.o)
 .data          0x00000000        0x0 c:/rt-threadstudio/repo/extract/toolchain_support_packages/arm/gnu_tools_for_arm_embedded_processors/5.4.1/bin/../lib/gcc/arm-none-eabi/5.4.1/../../../../arm-none-eabi/lib/armv7e-m/fpu\libc.a(lib_a-strchr.o)
 .bss           0x00000000        0x0 c:/rt-threadstudio/repo/extract/toolchain_support_packages/arm/gnu_tools_for_arm_embedded_processors/5.4.1/bin/../lib/gcc/arm-none-eabi/5.4.1/../../../../arm-none-eabi/lib/armv7e-m/fpu\libc.a(lib_a-strchr.o)
 .data          0x00000000        0x0 c:/rt-threadstudio/repo/extract/toolchain_support_packages/arm/gnu_tools_for_arm_embedded_processors/5.4.1/bin/../lib/gcc/arm-none-eabi/5.4.1/../../../../arm-none-eabi/lib/armv7e-m/fpu\libc.a(lib_a-strcmp.o)
 .bss           0x00000000        0x0 c:/rt-threadstudio/repo/extract/toolchain_support_packages/arm/gnu_tools_for_arm_embedded_processors/5.4.1/bin/../lib/gcc/arm-none-eabi/5.4.1/../../../../arm-none-eabi/lib/armv7e-m/fpu\libc.a(lib_a-strcmp.o)
 .text          0x00000000        0x0 c:/rt-threadstudio/repo/extract/toolchain_support_packages/arm/gnu_tools_for_arm_embedded_processors/5.4.1/bin/../lib/gcc/arm-none-eabi/5.4.1/../../../../arm-none-eabi/lib/armv7e-m/fpu\libc.a(lib_a-strcpy.o)
 .data          0x00000000        0x0 c:/rt-threadstudio/repo/extract/toolchain_support_packages/arm/gnu_tools_for_arm_embedded_processors/5.4.1/bin/../lib/gcc/arm-none-eabi/5.4.1/../../../../arm-none-eabi/lib/armv7e-m/fpu\libc.a(lib_a-strcpy.o)
 .bss           0x00000000        0x0 c:/rt-threadstudio/repo/extract/toolchain_support_packages/arm/gnu_tools_for_arm_embedded_processors/5.4.1/bin/../lib/gcc/arm-none-eabi/5.4.1/../../../../arm-none-eabi/lib/armv7e-m/fpu\libc.a(lib_a-strcpy.o)
 .data          0x00000000        0x0 c:/rt-threadstudio/repo/extract/toolchain_support_packages/arm/gnu_tools_for_arm_embedded_processors/5.4.1/bin/../lib/gcc/arm-none-eabi/5.4.1/../../../../arm-none-eabi/lib/armv7e-m/fpu\libc.a(lib_a-strlen.o)
 .bss           0x00000000        0x0 c:/rt-threadstudio/repo/extract/toolchain_support_packages/arm/gnu_tools_for_arm_embedded_processors/5.4.1/bin/../lib/gcc/arm-none-eabi/5.4.1/../../../../arm-none-eabi/lib/armv7e-m/fpu\libc.a(lib_a-strlen.o)
 .text          0x00000000        0x0 c:/rt-threadstudio/repo/extract/toolchain_support_packages/arm/gnu_tools_for_arm_embedded_processors/5.4.1/bin/../lib/gcc/arm-none-eabi/5.4.1/../../../../arm-none-eabi/lib/armv7e-m/fpu\libc.a(lib_a-strncat.o)
 .data          0x00000000        0x0 c:/rt-threadstudio/repo/extract/toolchain_support_packages/arm/gnu_tools_for_arm_embedded_processors/5.4.1/bin/../lib/gcc/arm-none-eabi/5.4.1/../../../../arm-none-eabi/lib/armv7e-m/fpu\libc.a(lib_a-strncat.o)
 .bss           0x00000000        0x0 c:/rt-threadstudio/repo/extract/toolchain_support_packages/arm/gnu_tools_for_arm_embedded_processors/5.4.1/bin/../lib/gcc/arm-none-eabi/5.4.1/../../../../arm-none-eabi/lib/armv7e-m/fpu\libc.a(lib_a-strncat.o)
 .text          0x00000000        0x0 c:/rt-threadstudio/repo/extract/toolchain_support_packages/arm/gnu_tools_for_arm_embedded_processors/5.4.1/bin/../lib/gcc/arm-none-eabi/5.4.1/../../../../arm-none-eabi/lib/armv7e-m/fpu\libc.a(lib_a-strncmp.o)
 .data          0x00000000        0x0 c:/rt-threadstudio/repo/extract/toolchain_support_packages/arm/gnu_tools_for_arm_embedded_processors/5.4.1/bin/../lib/gcc/arm-none-eabi/5.4.1/../../../../arm-none-eabi/lib/armv7e-m/fpu\libc.a(lib_a-strncmp.o)
 .bss           0x00000000        0x0 c:/rt-threadstudio/repo/extract/toolchain_support_packages/arm/gnu_tools_for_arm_embedded_processors/5.4.1/bin/../lib/gcc/arm-none-eabi/5.4.1/../../../../arm-none-eabi/lib/armv7e-m/fpu\libc.a(lib_a-strncmp.o)
 .text          0x00000000        0x0 c:/rt-threadstudio/repo/extract/toolchain_support_packages/arm/gnu_tools_for_arm_embedded_processors/5.4.1/bin/../lib/gcc/arm-none-eabi/5.4.1/../../../../arm-none-eabi/lib/armv7e-m/fpu\libc.a(lib_a-strncpy.o)
 .data          0x00000000        0x0 c:/rt-threadstudio/repo/extract/toolchain_support_packages/arm/gnu_tools_for_arm_embedded_processors/5.4.1/bin/../lib/gcc/arm-none-eabi/5.4.1/../../../../arm-none-eabi/lib/armv7e-m/fpu\libc.a(lib_a-strncpy.o)
 .bss           0x00000000        0x0 c:/rt-threadstudio/repo/extract/toolchain_support_packages/arm/gnu_tools_for_arm_embedded_processors/5.4.1/bin/../lib/gcc/arm-none-eabi/5.4.1/../../../../arm-none-eabi/lib/armv7e-m/fpu\libc.a(lib_a-strncpy.o)
 .text          0x00000000        0x0 c:/rt-threadstudio/repo/extract/toolchain_support_packages/arm/gnu_tools_for_arm_embedded_processors/5.4.1/bin/../lib/gcc/arm-none-eabi/5.4.1/../../../../arm-none-eabi/lib/armv7e-m/fpu\libc.a(lib_a-strrchr.o)
 .data          0x00000000        0x0 c:/rt-threadstudio/repo/extract/toolchain_support_packages/arm/gnu_tools_for_arm_embedded_processors/5.4.1/bin/../lib/gcc/arm-none-eabi/5.4.1/../../../../arm-none-eabi/lib/armv7e-m/fpu\libc.a(lib_a-strrchr.o)
 .bss           0x00000000        0x0 c:/rt-threadstudio/repo/extract/toolchain_support_packages/arm/gnu_tools_for_arm_embedded_processors/5.4.1/bin/../lib/gcc/arm-none-eabi/5.4.1/../../../../arm-none-eabi/lib/armv7e-m/fpu\libc.a(lib_a-strrchr.o)
 .text          0x00000000        0x0 c:/rt-threadstudio/repo/extract/toolchain_support_packages/arm/gnu_tools_for_arm_embedded_processors/5.4.1/bin/../lib/gcc/arm-none-eabi/5.4.1/../../../../arm-none-eabi/lib/armv7e-m/fpu\libc.a(lib_a-strstr.o)
 .data          0x00000000        0x0 c:/rt-threadstudio/repo/extract/toolchain_support_packages/arm/gnu_tools_for_arm_embedded_processors/5.4.1/bin/../lib/gcc/arm-none-eabi/5.4.1/../../../../arm-none-eabi/lib/armv7e-m/fpu\libc.a(lib_a-strstr.o)
 .bss           0x00000000        0x0 c:/rt-threadstudio/repo/extract/toolchain_support_packages/arm/gnu_tools_for_arm_embedded_processors/5.4.1/bin/../lib/gcc/arm-none-eabi/5.4.1/../../../../arm-none-eabi/lib/armv7e-m/fpu\libc.a(lib_a-strstr.o)
 .text          0x00000000        0x0 c:/rt-threadstudio/repo/extract/toolchain_support_packages/arm/gnu_tools_for_arm_embedded_processors/5.4.1/bin/../lib/gcc/arm-none-eabi/5.4.1/../../../../arm-none-eabi/lib/armv7e-m/fpu\libc.a(lib_a-strtol.o)
 .data          0x00000000        0x0 c:/rt-threadstudio/repo/extract/toolchain_support_packages/arm/gnu_tools_for_arm_embedded_processors/5.4.1/bin/../lib/gcc/arm-none-eabi/5.4.1/../../../../arm-none-eabi/lib/armv7e-m/fpu\libc.a(lib_a-strtol.o)
 .bss           0x00000000        0x0 c:/rt-threadstudio/repo/extract/toolchain_support_packages/arm/gnu_tools_for_arm_embedded_processors/5.4.1/bin/../lib/gcc/arm-none-eabi/5.4.1/../../../../arm-none-eabi/lib/armv7e-m/fpu\libc.a(lib_a-strtol.o)
 .text._strtol_r
                0x00000000       0x24 c:/rt-threadstudio/repo/extract/toolchain_support_packages/arm/gnu_tools_for_arm_embedded_processors/5.4.1/bin/../lib/gcc/arm-none-eabi/5.4.1/../../../../arm-none-eabi/lib/armv7e-m/fpu\libc.a(lib_a-strtol.o)
 .text.strtol_l
                0x00000000       0x20 c:/rt-threadstudio/repo/extract/toolchain_support_packages/arm/gnu_tools_for_arm_embedded_processors/5.4.1/bin/../lib/gcc/arm-none-eabi/5.4.1/../../../../arm-none-eabi/lib/armv7e-m/fpu\libc.a(lib_a-strtol.o)
 .text          0x00000000        0x0 c:/rt-threadstudio/repo/extract/toolchain_support_packages/arm/gnu_tools_for_arm_embedded_processors/5.4.1/bin/../lib/gcc/arm-none-eabi/5.4.1/../../../../arm-none-eabi/lib/armv7e-m/fpu\libc.a(lib_a-wctomb_r.o)
 .data          0x00000000        0x0 c:/rt-threadstudio/repo/extract/toolchain_support_packages/arm/gnu_tools_for_arm_embedded_processors/5.4.1/bin/../lib/gcc/arm-none-eabi/5.4.1/../../../../arm-none-eabi/lib/armv7e-m/fpu\libc.a(lib_a-wctomb_r.o)
 .bss           0x00000000        0x0 c:/rt-threadstudio/repo/extract/toolchain_support_packages/arm/gnu_tools_for_arm_embedded_processors/5.4.1/bin/../lib/gcc/arm-none-eabi/5.4.1/../../../../arm-none-eabi/lib/armv7e-m/fpu\libc.a(lib_a-wctomb_r.o)
 .text._wctomb_r
                0x00000000       0x24 c:/rt-threadstudio/repo/extract/toolchain_support_packages/arm/gnu_tools_for_arm_embedded_processors/5.4.1/bin/../lib/gcc/arm-none-eabi/5.4.1/../../../../arm-none-eabi/lib/armv7e-m/fpu\libc.a(lib_a-wctomb_r.o)
 .text          0x00000000        0x0 c:/rt-threadstudio/repo/extract/toolchain_support_packages/arm/gnu_tools_for_arm_embedded_processors/5.4.1/bin/../lib/gcc/arm-none-eabi/5.4.1/../../../../arm-none-eabi/lib/armv7e-m/fpu\libc.a(lib_a-__call_atexit.o)
 .data          0x00000000        0x0 c:/rt-threadstudio/repo/extract/toolchain_support_packages/arm/gnu_tools_for_arm_embedded_processors/5.4.1/bin/../lib/gcc/arm-none-eabi/5.4.1/../../../../arm-none-eabi/lib/armv7e-m/fpu\libc.a(lib_a-__call_atexit.o)
 .bss           0x00000000        0x0 c:/rt-threadstudio/repo/extract/toolchain_support_packages/arm/gnu_tools_for_arm_embedded_processors/5.4.1/bin/../lib/gcc/arm-none-eabi/5.4.1/../../../../arm-none-eabi/lib/armv7e-m/fpu\libc.a(lib_a-__call_atexit.o)
 .text.startup.register_fini
                0x00000000       0x14 c:/rt-threadstudio/repo/extract/toolchain_support_packages/arm/gnu_tools_for_arm_embedded_processors/5.4.1/bin/../lib/gcc/arm-none-eabi/5.4.1/../../../../arm-none-eabi/lib/armv7e-m/fpu\libc.a(lib_a-__call_atexit.o)
 .init_array.00000
                0x00000000        0x4 c:/rt-threadstudio/repo/extract/toolchain_support_packages/arm/gnu_tools_for_arm_embedded_processors/5.4.1/bin/../lib/gcc/arm-none-eabi/5.4.1/../../../../arm-none-eabi/lib/armv7e-m/fpu\libc.a(lib_a-__call_atexit.o)
 .text.__call_exitprocs
                0x00000000       0xd8 c:/rt-threadstudio/repo/extract/toolchain_support_packages/arm/gnu_tools_for_arm_embedded_processors/5.4.1/bin/../lib/gcc/arm-none-eabi/5.4.1/../../../../arm-none-eabi/lib/armv7e-m/fpu\libc.a(lib_a-__call_atexit.o)
 .debug_frame   0x00000000       0x50 c:/rt-threadstudio/repo/extract/toolchain_support_packages/arm/gnu_tools_for_arm_embedded_processors/5.4.1/bin/../lib/gcc/arm-none-eabi/5.4.1/../../../../arm-none-eabi/lib/armv7e-m/fpu\libc.a(lib_a-__call_atexit.o)
 .ARM.attributes
                0x00000000       0x34 c:/rt-threadstudio/repo/extract/toolchain_support_packages/arm/gnu_tools_for_arm_embedded_processors/5.4.1/bin/../lib/gcc/arm-none-eabi/5.4.1/../../../../arm-none-eabi/lib/armv7e-m/fpu\libc.a(lib_a-__call_atexit.o)
 .text          0x00000000        0x0 c:/rt-threadstudio/repo/extract/toolchain_support_packages/arm/gnu_tools_for_arm_embedded_processors/5.4.1/bin/../lib/gcc/arm-none-eabi/5.4.1/../../../../arm-none-eabi/lib/armv7e-m/fpu\libc.a(lib_a-atexit.o)
 .data          0x00000000        0x0 c:/rt-threadstudio/repo/extract/toolchain_support_packages/arm/gnu_tools_for_arm_embedded_processors/5.4.1/bin/../lib/gcc/arm-none-eabi/5.4.1/../../../../arm-none-eabi/lib/armv7e-m/fpu\libc.a(lib_a-atexit.o)
 .bss           0x00000000        0x0 c:/rt-threadstudio/repo/extract/toolchain_support_packages/arm/gnu_tools_for_arm_embedded_processors/5.4.1/bin/../lib/gcc/arm-none-eabi/5.4.1/../../../../arm-none-eabi/lib/armv7e-m/fpu\libc.a(lib_a-atexit.o)
 .text.atexit   0x00000000        0xc c:/rt-threadstudio/repo/extract/toolchain_support_packages/arm/gnu_tools_for_arm_embedded_processors/5.4.1/bin/../lib/gcc/arm-none-eabi/5.4.1/../../../../arm-none-eabi/lib/armv7e-m/fpu\libc.a(lib_a-atexit.o)
 .debug_frame   0x00000000       0x20 c:/rt-threadstudio/repo/extract/toolchain_support_packages/arm/gnu_tools_for_arm_embedded_processors/5.4.1/bin/../lib/gcc/arm-none-eabi/5.4.1/../../../../arm-none-eabi/lib/armv7e-m/fpu\libc.a(lib_a-atexit.o)
 .ARM.attributes
                0x00000000       0x34 c:/rt-threadstudio/repo/extract/toolchain_support_packages/arm/gnu_tools_for_arm_embedded_processors/5.4.1/bin/../lib/gcc/arm-none-eabi/5.4.1/../../../../arm-none-eabi/lib/armv7e-m/fpu\libc.a(lib_a-atexit.o)
 .text          0x00000000        0x0 c:/rt-threadstudio/repo/extract/toolchain_support_packages/arm/gnu_tools_for_arm_embedded_processors/5.4.1/bin/../lib/gcc/arm-none-eabi/5.4.1/../../../../arm-none-eabi/lib/armv7e-m/fpu\libc.a(lib_a-ctype_.o)
 .data          0x00000000        0x0 c:/rt-threadstudio/repo/extract/toolchain_support_packages/arm/gnu_tools_for_arm_embedded_processors/5.4.1/bin/../lib/gcc/arm-none-eabi/5.4.1/../../../../arm-none-eabi/lib/armv7e-m/fpu\libc.a(lib_a-ctype_.o)
 .bss           0x00000000        0x0 c:/rt-threadstudio/repo/extract/toolchain_support_packages/arm/gnu_tools_for_arm_embedded_processors/5.4.1/bin/../lib/gcc/arm-none-eabi/5.4.1/../../../../arm-none-eabi/lib/armv7e-m/fpu\libc.a(lib_a-ctype_.o)
 .text          0x00000000        0x0 c:/rt-threadstudio/repo/extract/toolchain_support_packages/arm/gnu_tools_for_arm_embedded_processors/5.4.1/bin/../lib/gcc/arm-none-eabi/5.4.1/../../../../arm-none-eabi/lib/armv7e-m/fpu\libc.a(lib_a-fini.o)
 .data          0x00000000        0x0 c:/rt-threadstudio/repo/extract/toolchain_support_packages/arm/gnu_tools_for_arm_embedded_processors/5.4.1/bin/../lib/gcc/arm-none-eabi/5.4.1/../../../../arm-none-eabi/lib/armv7e-m/fpu\libc.a(lib_a-fini.o)
 .bss           0x00000000        0x0 c:/rt-threadstudio/repo/extract/toolchain_support_packages/arm/gnu_tools_for_arm_embedded_processors/5.4.1/bin/../lib/gcc/arm-none-eabi/5.4.1/../../../../arm-none-eabi/lib/armv7e-m/fpu\libc.a(lib_a-fini.o)
 .text.__libc_fini_array
                0x00000000       0x28 c:/rt-threadstudio/repo/extract/toolchain_support_packages/arm/gnu_tools_for_arm_embedded_processors/5.4.1/bin/../lib/gcc/arm-none-eabi/5.4.1/../../../../arm-none-eabi/lib/armv7e-m/fpu\libc.a(lib_a-fini.o)
 .debug_frame   0x00000000       0x34 c:/rt-threadstudio/repo/extract/toolchain_support_packages/arm/gnu_tools_for_arm_embedded_processors/5.4.1/bin/../lib/gcc/arm-none-eabi/5.4.1/../../../../arm-none-eabi/lib/armv7e-m/fpu\libc.a(lib_a-fini.o)
 .ARM.attributes
                0x00000000       0x34 c:/rt-threadstudio/repo/extract/toolchain_support_packages/arm/gnu_tools_for_arm_embedded_processors/5.4.1/bin/../lib/gcc/arm-none-eabi/5.4.1/../../../../arm-none-eabi/lib/armv7e-m/fpu\libc.a(lib_a-fini.o)
 .data          0x00000000        0x0 c:/rt-threadstudio/repo/extract/toolchain_support_packages/arm/gnu_tools_for_arm_embedded_processors/5.4.1/bin/../lib/gcc/arm-none-eabi/5.4.1/../../../../arm-none-eabi/lib/armv7e-m/fpu\libc.a(lib_a-memchr.o)
 .bss           0x00000000        0x0 c:/rt-threadstudio/repo/extract/toolchain_support_packages/arm/gnu_tools_for_arm_embedded_processors/5.4.1/bin/../lib/gcc/arm-none-eabi/5.4.1/../../../../arm-none-eabi/lib/armv7e-m/fpu\libc.a(lib_a-memchr.o)
 .text          0x00000000        0x0 c:/rt-threadstudio/repo/extract/toolchain_support_packages/arm/gnu_tools_for_arm_embedded_processors/5.4.1/bin/../lib/gcc/arm-none-eabi/5.4.1/../../../../arm-none-eabi/lib/armv7e-m/fpu\libc.a(lib_a-__atexit.o)
 .data          0x00000000        0x0 c:/rt-threadstudio/repo/extract/toolchain_support_packages/arm/gnu_tools_for_arm_embedded_processors/5.4.1/bin/../lib/gcc/arm-none-eabi/5.4.1/../../../../arm-none-eabi/lib/armv7e-m/fpu\libc.a(lib_a-__atexit.o)
 .bss           0x00000000        0x0 c:/rt-threadstudio/repo/extract/toolchain_support_packages/arm/gnu_tools_for_arm_embedded_processors/5.4.1/bin/../lib/gcc/arm-none-eabi/5.4.1/../../../../arm-none-eabi/lib/armv7e-m/fpu\libc.a(lib_a-__atexit.o)
 .text.__register_exitproc
                0x00000000       0xa4 c:/rt-threadstudio/repo/extract/toolchain_support_packages/arm/gnu_tools_for_arm_embedded_processors/5.4.1/bin/../lib/gcc/arm-none-eabi/5.4.1/../../../../arm-none-eabi/lib/armv7e-m/fpu\libc.a(lib_a-__atexit.o)
 .debug_frame   0x00000000       0x34 c:/rt-threadstudio/repo/extract/toolchain_support_packages/arm/gnu_tools_for_arm_embedded_processors/5.4.1/bin/../lib/gcc/arm-none-eabi/5.4.1/../../../../arm-none-eabi/lib/armv7e-m/fpu\libc.a(lib_a-__atexit.o)
 .ARM.attributes
                0x00000000       0x34 c:/rt-threadstudio/repo/extract/toolchain_support_packages/arm/gnu_tools_for_arm_embedded_processors/5.4.1/bin/../lib/gcc/arm-none-eabi/5.4.1/../../../../arm-none-eabi/lib/armv7e-m/fpu\libc.a(lib_a-__atexit.o)
 .text          0x00000000      0x370 c:/rt-threadstudio/repo/extract/toolchain_support_packages/arm/gnu_tools_for_arm_embedded_processors/5.4.1/bin/../lib/gcc/arm-none-eabi/5.4.1/armv7e-m/fpu\libgcc.a(_arm_addsubdf3.o)
 .data          0x00000000        0x0 c:/rt-threadstudio/repo/extract/toolchain_support_packages/arm/gnu_tools_for_arm_embedded_processors/5.4.1/bin/../lib/gcc/arm-none-eabi/5.4.1/armv7e-m/fpu\libgcc.a(_arm_addsubdf3.o)
 .bss           0x00000000        0x0 c:/rt-threadstudio/repo/extract/toolchain_support_packages/arm/gnu_tools_for_arm_embedded_processors/5.4.1/bin/../lib/gcc/arm-none-eabi/5.4.1/armv7e-m/fpu\libgcc.a(_arm_addsubdf3.o)
 .ARM.attributes
                0x00000000       0x22 c:/rt-threadstudio/repo/extract/toolchain_support_packages/arm/gnu_tools_for_arm_embedded_processors/5.4.1/bin/../lib/gcc/arm-none-eabi/5.4.1/armv7e-m/fpu\libgcc.a(_arm_addsubdf3.o)
 .text          0x00000000        0x0 c:/rt-threadstudio/repo/extract/toolchain_support_packages/arm/gnu_tools_for_arm_embedded_processors/5.4.1/bin/../lib/gcc/arm-none-eabi/5.4.1/armv7e-m/fpu/crtend.o
 .data          0x00000000        0x0 c:/rt-threadstudio/repo/extract/toolchain_support_packages/arm/gnu_tools_for_arm_embedded_processors/5.4.1/bin/../lib/gcc/arm-none-eabi/5.4.1/armv7e-m/fpu/crtend.o
 .bss           0x00000000        0x0 c:/rt-threadstudio/repo/extract/toolchain_support_packages/arm/gnu_tools_for_arm_embedded_processors/5.4.1/bin/../lib/gcc/arm-none-eabi/5.4.1/armv7e-m/fpu/crtend.o
 .eh_frame      0x00000000        0x4 c:/rt-threadstudio/repo/extract/toolchain_support_packages/arm/gnu_tools_for_arm_embedded_processors/5.4.1/bin/../lib/gcc/arm-none-eabi/5.4.1/armv7e-m/fpu/crtend.o
 .jcr           0x00000000        0x4 c:/rt-threadstudio/repo/extract/toolchain_support_packages/arm/gnu_tools_for_arm_embedded_processors/5.4.1/bin/../lib/gcc/arm-none-eabi/5.4.1/armv7e-m/fpu/crtend.o
 .ARM.attributes
                0x00000000       0x34 c:/rt-threadstudio/repo/extract/toolchain_support_packages/arm/gnu_tools_for_arm_embedded_processors/5.4.1/bin/../lib/gcc/arm-none-eabi/5.4.1/armv7e-m/fpu/crtend.o
 .text          0x00000000        0x0 c:/rt-threadstudio/repo/extract/toolchain_support_packages/arm/gnu_tools_for_arm_embedded_processors/5.4.1/bin/../lib/gcc/arm-none-eabi/5.4.1/armv7e-m/fpu/crtn.o
 .data          0x00000000        0x0 c:/rt-threadstudio/repo/extract/toolchain_support_packages/arm/gnu_tools_for_arm_embedded_processors/5.4.1/bin/../lib/gcc/arm-none-eabi/5.4.1/armv7e-m/fpu/crtn.o
 .bss           0x00000000        0x0 c:/rt-threadstudio/repo/extract/toolchain_support_packages/arm/gnu_tools_for_arm_embedded_processors/5.4.1/bin/../lib/gcc/arm-none-eabi/5.4.1/armv7e-m/fpu/crtn.o
 .init          0x00000000        0x8 c:/rt-threadstudio/repo/extract/toolchain_support_packages/arm/gnu_tools_for_arm_embedded_processors/5.4.1/bin/../lib/gcc/arm-none-eabi/5.4.1/armv7e-m/fpu/crtn.o
 .fini          0x00000000        0x8 c:/rt-threadstudio/repo/extract/toolchain_support_packages/arm/gnu_tools_for_arm_embedded_processors/5.4.1/bin/../lib/gcc/arm-none-eabi/5.4.1/armv7e-m/fpu/crtn.o
 .ARM.attributes
                0x00000000       0x22 c:/rt-threadstudio/repo/extract/toolchain_support_packages/arm/gnu_tools_for_arm_embedded_processors/5.4.1/bin/../lib/gcc/arm-none-eabi/5.4.1/armv7e-m/fpu/crtn.o

Memory Configuration

Name             Origin             Length             Attributes
CODE             0x08000000         0x00100000         xr
DATA             0x20000000         0x00020000         rw
*default*        0x00000000         0xffffffff

Linker script and memory map

LOAD c:/rt-threadstudio/repo/extract/toolchain_support_packages/arm/gnu_tools_for_arm_embedded_processors/5.4.1/bin/../lib/gcc/arm-none-eabi/5.4.1/armv7e-m/fpu/crti.o
LOAD c:/rt-threadstudio/repo/extract/toolchain_support_packages/arm/gnu_tools_for_arm_embedded_processors/5.4.1/bin/../lib/gcc/arm-none-eabi/5.4.1/armv7e-m/fpu/crtbegin.o
LOAD c:/rt-threadstudio/repo/extract/toolchain_support_packages/arm/gnu_tools_for_arm_embedded_processors/5.4.1/bin/../lib/gcc/arm-none-eabi/5.4.1/../../../../arm-none-eabi/lib/armv7e-m/fpu/crt0.o
LOAD ./rt-thread/src/clock.o
LOAD ./rt-thread/src/components.o
LOAD ./rt-thread/src/device.o
LOAD ./rt-thread/src/idle.o
LOAD ./rt-thread/src/ipc.o
LOAD ./rt-thread/src/irq.o
LOAD ./rt-thread/src/kservice.o
LOAD ./rt-thread/src/mem.o
LOAD ./rt-thread/src/mempool.o
LOAD ./rt-thread/src/object.o
LOAD ./rt-thread/src/scheduler.o
LOAD ./rt-thread/src/thread.o
LOAD ./rt-thread/src/timer.o
LOAD ./rt-thread/libcpu/arm/cortex-m4/context_gcc.o
LOAD ./rt-thread/libcpu/arm/cortex-m4/cpuport.o
LOAD ./rt-thread/libcpu/arm/common/backtrace.o
LOAD ./rt-thread/libcpu/arm/common/div0.o
LOAD ./rt-thread/libcpu/arm/common/showmem.o
LOAD ./rt-thread/components/libc/compilers/newlib/syscalls.o
LOAD ./rt-thread/components/libc/compilers/common/cctype.o
LOAD ./rt-thread/components/libc/compilers/common/cstdio.o
LOAD ./rt-thread/components/libc/compilers/common/cstdlib.o
LOAD ./rt-thread/components/libc/compilers/common/cstring.o
LOAD ./rt-thread/components/libc/compilers/common/ctime.o
LOAD ./rt-thread/components/libc/compilers/common/cwchar.o
LOAD ./rt-thread/components/finsh/cmd.o
LOAD ./rt-thread/components/finsh/msh.o
LOAD ./rt-thread/components/finsh/msh_file.o
LOAD ./rt-thread/components/finsh/msh_parse.o
LOAD ./rt-thread/components/finsh/shell.o
LOAD ./rt-thread/components/drivers/serial/serial.o
LOAD ./rt-thread/components/drivers/misc/pin.o
LOAD ./rt-thread/components/drivers/ipc/completion.o
LOAD ./rt-thread/components/drivers/ipc/dataqueue.o
LOAD ./rt-thread/components/drivers/ipc/pipe.o
LOAD ./rt-thread/components/drivers/ipc/ringblk_buf.o
LOAD ./rt-thread/components/drivers/ipc/ringbuffer.o
LOAD ./rt-thread/components/drivers/ipc/waitqueue.o
LOAD ./rt-thread/components/drivers/ipc/workqueue.o
LOAD ./rt-thread/components/dfs/src/dfs.o
LOAD ./rt-thread/components/dfs/src/dfs_file.o
LOAD ./rt-thread/components/dfs/src/dfs_fs.o
LOAD ./rt-thread/components/dfs/src/dfs_posix.o
LOAD ./libraries/Drivers/drv_common.o
LOAD ./libraries/Drivers/drv_gpio.o
LOAD ./libraries/Drivers/drv_usart.o
LOAD ./libraries/APM32F4xx_Library/Device/Geehy/APM32F4xx/Source/gcc/startup_apm32f40x.o
LOAD ./libraries/APM32F4xx_Library/Device/Geehy/APM32F4xx/Source/system_apm32f4xx.o
LOAD ./libraries/APM32F4xx_Library/APM32F4xx_StdPeriphDriver/src/apm32f4xx_eint.o
LOAD ./libraries/APM32F4xx_Library/APM32F4xx_StdPeriphDriver/src/apm32f4xx_gpio.o
LOAD ./libraries/APM32F4xx_Library/APM32F4xx_StdPeriphDriver/src/apm32f4xx_misc.o
LOAD ./libraries/APM32F4xx_Library/APM32F4xx_StdPeriphDriver/src/apm32f4xx_rcm.o
LOAD ./libraries/APM32F4xx_Library/APM32F4xx_StdPeriphDriver/src/apm32f4xx_usart.o
LOAD ./board/board.o
LOAD ./applications/main.o
LOAD c:/rt-threadstudio/repo/extract/toolchain_support_packages/arm/gnu_tools_for_arm_embedded_processors/5.4.1/bin/../lib/gcc/arm-none-eabi/5.4.1/../../../../arm-none-eabi/lib/armv7e-m/fpu\libc.a
LOAD c:/rt-threadstudio/repo/extract/toolchain_support_packages/arm/gnu_tools_for_arm_embedded_processors/5.4.1/bin/../lib/gcc/arm-none-eabi/5.4.1/../../../../arm-none-eabi/lib/armv7e-m/fpu\libm.a
START GROUP
LOAD c:/rt-threadstudio/repo/extract/toolchain_support_packages/arm/gnu_tools_for_arm_embedded_processors/5.4.1/bin/../lib/gcc/arm-none-eabi/5.4.1/armv7e-m/fpu\libgcc.a
LOAD c:/rt-threadstudio/repo/extract/toolchain_support_packages/arm/gnu_tools_for_arm_embedded_processors/5.4.1/bin/../lib/gcc/arm-none-eabi/5.4.1/../../../../arm-none-eabi/lib/armv7e-m/fpu\libc.a
END GROUP
LOAD c:/rt-threadstudio/repo/extract/toolchain_support_packages/arm/gnu_tools_for_arm_embedded_processors/5.4.1/bin/../lib/gcc/arm-none-eabi/5.4.1/armv7e-m/fpu/crtend.o
LOAD c:/rt-threadstudio/repo/extract/toolchain_support_packages/arm/gnu_tools_for_arm_embedded_processors/5.4.1/bin/../lib/gcc/arm-none-eabi/5.4.1/armv7e-m/fpu/crtn.o
                0x00000200                _system_stack_size = 0x200

.text           0x08000000    0x120e8
                0x08000000                . = ALIGN (0x4)
                0x08000000                _stext = .
 *(.isr_vector)
 .isr_vector    0x08000000      0x194 ./libraries/APM32F4xx_Library/Device/Geehy/APM32F4xx/Source/gcc/startup_apm32f40x.o
                0x08000000                g_pfnVectors
                0x08000194                . = ALIGN (0x4)
 *(.text)
 .text          0x08000194      0x144 ./rt-thread/libcpu/arm/cortex-m4/context_gcc.o
                0x08000194                rt_hw_interrupt_disable
                0x0800019c                rt_hw_interrupt_enable
                0x080001a2                rt_hw_context_switch_interrupt
                0x080001a2                rt_hw_context_switch
                0x080001c2                PendSV_Handler
                0x0800022e                rt_hw_context_switch_to
                0x0800027c                rt_hw_interrupt_thread_switch
                0x08000280                HardFault_Handler
 *fill*         0x080002d8        0x8 00000000
 .text          0x080002e0      0x2dc c:/rt-threadstudio/repo/extract/toolchain_support_packages/arm/gnu_tools_for_arm_embedded_processors/5.4.1/bin/../lib/gcc/arm-none-eabi/5.4.1/../../../../arm-none-eabi/lib/armv7e-m/fpu\libc.a(lib_a-strcmp.o)
                0x080002e8                strcmp
 *fill*         0x080005bc        0x4 00000000
 .text          0x080005c0       0xdc c:/rt-threadstudio/repo/extract/toolchain_support_packages/arm/gnu_tools_for_arm_embedded_processors/5.4.1/bin/../lib/gcc/arm-none-eabi/5.4.1/../../../../arm-none-eabi/lib/armv7e-m/fpu\libc.a(lib_a-strlen.o)
                0x080005c0                strlen
 *fill*         0x0800069c        0x4 00000000
 .text          0x080006a0       0xa0 c:/rt-threadstudio/repo/extract/toolchain_support_packages/arm/gnu_tools_for_arm_embedded_processors/5.4.1/bin/../lib/gcc/arm-none-eabi/5.4.1/../../../../arm-none-eabi/lib/armv7e-m/fpu\libc.a(lib_a-memchr.o)
                0x080006a0                memchr
 *(.text.*)
 .text.rt_tick_get
                0x08000740       0x18 ./rt-thread/src/clock.o
                0x08000740                rt_tick_get
 .text.rt_tick_increase
                0x08000758       0x7c ./rt-thread/src/clock.o
                0x08000758                rt_tick_increase
 .text.rt_tick_from_millisecond
                0x080007d4       0x78 ./rt-thread/src/clock.o
                0x080007d4                rt_tick_from_millisecond
 .text.rti_start
                0x0800084c       0x10 ./rt-thread/src/components.o
 .text.rti_board_start
                0x0800085c       0x10 ./rt-thread/src/components.o
 .text.rti_board_end
                0x0800086c       0x10 ./rt-thread/src/components.o
 .text.rti_end  0x0800087c       0x10 ./rt-thread/src/components.o
 .text.rt_components_board_init
                0x0800088c       0x30 ./rt-thread/src/components.o
                0x0800088c                rt_components_board_init
 .text.rt_components_init
                0x080008bc       0x30 ./rt-thread/src/components.o
                0x080008bc                rt_components_init
 .text.entry    0x080008ec       0x10 ./rt-thread/src/components.o
                0x080008ec                entry
 .text.main_thread_entry
                0x080008fc       0x18 ./rt-thread/src/components.o
                0x080008fc                main_thread_entry
 .text.rt_application_init
                0x08000914       0x4c ./rt-thread/src/components.o
                0x08000914                rt_application_init
 .text.rtthread_startup
                0x08000960       0x30 ./rt-thread/src/components.o
                0x08000960                rtthread_startup
 .text.rt_device_register
                0x08000990       0x54 ./rt-thread/src/device.o
                0x08000990                rt_device_register
 .text.rt_device_find
                0x080009e4       0x1c ./rt-thread/src/device.o
                0x080009e4                rt_device_find
 .text.rt_device_open
                0x08000a00      0x118 ./rt-thread/src/device.o
                0x08000a00                rt_device_open
 .text.rt_device_close
                0x08000b18       0x9c ./rt-thread/src/device.o
                0x08000b18                rt_device_close
 .text.rt_device_read
                0x08000bb4       0x88 ./rt-thread/src/device.o
                0x08000bb4                rt_device_read
 .text.rt_device_write
                0x08000c3c       0x88 ./rt-thread/src/device.o
                0x08000c3c                rt_device_write
 .text.rt_device_set_rx_indicate
                0x08000cc4       0x54 ./rt-thread/src/device.o
                0x08000cc4                rt_device_set_rx_indicate
 .text.rt_list_insert_after
                0x08000d18       0x34 ./rt-thread/src/idle.o
 .text.rt_list_remove
                0x08000d4c       0x38 ./rt-thread/src/idle.o
 .text.rt_thread_defunct_enqueue
                0x08000d84       0x20 ./rt-thread/src/idle.o
                0x08000d84                rt_thread_defunct_enqueue
 .text.rt_thread_defunct_dequeue
                0x08000da4       0x44 ./rt-thread/src/idle.o
                0x08000da4                rt_thread_defunct_dequeue
 .text.rt_defunct_execute
                0x08000de8       0x5c ./rt-thread/src/idle.o
 .text.rt_thread_idle_entry
                0x08000e44       0x38 ./rt-thread/src/idle.o
 .text.rt_thread_idle_init
                0x08000e7c       0x74 ./rt-thread/src/idle.o
                0x08000e7c                rt_thread_idle_init
 .text.rt_list_init
                0x08000ef0       0x24 ./rt-thread/src/ipc.o
 .text.rt_list_insert_before
                0x08000f14       0x34 ./rt-thread/src/ipc.o
 .text.rt_list_isempty
                0x08000f48       0x24 ./rt-thread/src/ipc.o
 .text._ipc_object_init
                0x08000f6c       0x1c ./rt-thread/src/ipc.o
 .text._ipc_list_suspend
                0x08000f88       0xa4 ./rt-thread/src/ipc.o
 .text._ipc_list_resume
                0x0800102c       0x20 ./rt-thread/src/ipc.o
 .text.rt_sem_init
                0x0800104c       0x88 ./rt-thread/src/ipc.o
                0x0800104c                rt_sem_init
 .text.rt_sem_take
                0x080010d4      0x190 ./rt-thread/src/ipc.o
                0x080010d4                rt_sem_take
 .text.rt_sem_release
                0x08001264       0xc0 ./rt-thread/src/ipc.o
                0x08001264                rt_sem_release
 .text.rt_mutex_init
                0x08001324       0x64 ./rt-thread/src/ipc.o
                0x08001324                rt_mutex_init
 .text.rt_mutex_take
                0x08001388      0x21c ./rt-thread/src/ipc.o
                0x08001388                rt_mutex_take
 .text.rt_mutex_release
                0x080015a4      0x1bc ./rt-thread/src/ipc.o
                0x080015a4                rt_mutex_release
 .text.rt_interrupt_enter
                0x08001760       0x40 ./rt-thread/src/irq.o
                0x08001760                rt_interrupt_enter
 .text.rt_interrupt_leave
                0x080017a0       0x40 ./rt-thread/src/irq.o
                0x080017a0                rt_interrupt_leave
 .text.rt_interrupt_get_nest
                0x080017e0       0x28 ./rt-thread/src/irq.o
                0x080017e0                rt_interrupt_get_nest
 .text.rt_strerror
                0x08001808       0x38 ./rt-thread/src/kservice.o
                0x08001808                rt_strerror
 .text.rt_set_errno
                0x08001840       0x40 ./rt-thread/src/kservice.o
                0x08001840                rt_set_errno
 .text.rt_memset
                0x08001880       0xb8 ./rt-thread/src/kservice.o
                0x08001880                rt_memset
 .text.rt_memcpy
                0x08001938       0xd4 ./rt-thread/src/kservice.o
                0x08001938                rt_memcpy
 .text.rt_memmove
                0x08001a0c       0x84 ./rt-thread/src/kservice.o
                0x08001a0c                rt_memmove
 .text.rt_strdup
                0x08001a90       0x3c ./rt-thread/src/kservice.o
                0x08001a90                rt_strdup
 .text.rt_show_version
                0x08001acc       0x4c ./rt-thread/src/kservice.o
                0x08001acc                rt_show_version
 .text.divide   0x08001b18       0x68 ./rt-thread/src/kservice.o
 .text.skip_atoi
                0x08001b80       0x48 ./rt-thread/src/kservice.o
 .text.print_number
                0x08001bc8      0x200 ./rt-thread/src/kservice.o
 .text.rt_vsnprintf
                0x08001dc8      0x560 ./rt-thread/src/kservice.o
                0x08001dc8                rt_vsnprintf
 .text.rt_snprintf
                0x08002328       0x30 ./rt-thread/src/kservice.o
                0x08002328                rt_snprintf
 .text.rt_vsprintf
                0x08002358       0x24 ./rt-thread/src/kservice.o
                0x08002358                rt_vsprintf
 .text.rt_sprintf
                0x0800237c       0x2c ./rt-thread/src/kservice.o
                0x0800237c                rt_sprintf
 .text.rt_console_get_device
                0x080023a8       0x18 ./rt-thread/src/kservice.o
                0x080023a8                rt_console_get_device
 .text.rt_console_set_device
                0x080023c0       0x58 ./rt-thread/src/kservice.o
                0x080023c0                rt_console_set_device
 .text.rt_hw_console_output
                0x08002418       0x14 ./rt-thread/src/kservice.o
                0x08002418                rt_hw_console_output
 .text.rt_kprintf
                0x0800242c       0x60 ./rt-thread/src/kservice.o
                0x0800242c                rt_kprintf
 .text._heap_lock_init
                0x0800248c       0x1c ./rt-thread/src/kservice.o
 .text._heap_lock
                0x080024a8       0x28 ./rt-thread/src/kservice.o
 .text._heap_unlock
                0x080024d0       0x40 ./rt-thread/src/kservice.o
 .text._smem_info
                0x08002510       0x4c ./rt-thread/src/kservice.o
 .text.rt_system_heap_init
                0x0800255c       0x64 ./rt-thread/src/kservice.o
                0x0800255c                rt_system_heap_init
 .text.rt_malloc
                0x080025c0       0x48 ./rt-thread/src/kservice.o
                0x080025c0                rt_malloc
 .text.rt_realloc
                0x08002608       0x34 ./rt-thread/src/kservice.o
                0x08002608                rt_realloc
 .text.rt_calloc
                0x0800263c       0x3c ./rt-thread/src/kservice.o
                0x0800263c                rt_calloc
 .text.rt_free  0x08002678       0x40 ./rt-thread/src/kservice.o
                0x08002678                rt_free
 .text.rt_memory_info
                0x080026b8       0x2c ./rt-thread/src/kservice.o
                0x080026b8                rt_memory_info
 .text.rt_assert_handler
                0x080026e4       0x4c ./rt-thread/src/kservice.o
                0x080026e4                rt_assert_handler
 .text.plug_holes
                0x08002730       0xf4 ./rt-thread/src/mem.o
 .text.rt_smem_init
                0x08002824      0x104 ./rt-thread/src/mem.o
                0x08002824                rt_smem_init
 .text.rt_smem_alloc
                0x08002928      0x26c ./rt-thread/src/mem.o
                0x08002928                rt_smem_alloc
 .text.rt_smem_realloc
                0x08002b94      0x1d4 ./rt-thread/src/mem.o
                0x08002b94                rt_smem_realloc
 .text.rt_smem_free
                0x08002d68      0x140 ./rt-thread/src/mem.o
                0x08002d68                rt_smem_free
 .text.rt_list_insert_after
                0x08002ea8       0x34 ./rt-thread/src/object.o
 .text.rt_list_remove
                0x08002edc       0x38 ./rt-thread/src/object.o
 .text.rt_object_get_information
                0x08002f14       0x48 ./rt-thread/src/object.o
                0x08002f14                rt_object_get_information
 .text.rt_object_init
                0x08002f5c       0xcc ./rt-thread/src/object.o
                0x08002f5c                rt_object_init
 .text.rt_object_detach
                0x08003028       0x5c ./rt-thread/src/object.o
                0x08003028                rt_object_detach
 .text.rt_object_allocate
                0x08003084       0xd8 ./rt-thread/src/object.o
                0x08003084                rt_object_allocate
 .text.rt_object_delete
                0x0800315c       0x7c ./rt-thread/src/object.o
                0x0800315c                rt_object_delete
 .text.rt_object_is_systemobject
                0x080031d8       0x3c ./rt-thread/src/object.o
                0x080031d8                rt_object_is_systemobject
 .text.rt_object_get_type
                0x08003214       0x34 ./rt-thread/src/object.o
                0x08003214                rt_object_get_type
 .text.rt_object_find
                0x08003248       0xb4 ./rt-thread/src/object.o
                0x08003248                rt_object_find
 .text.rt_list_init
                0x080032fc       0x24 ./rt-thread/src/scheduler.o
 .text.rt_list_insert_before
                0x08003320       0x34 ./rt-thread/src/scheduler.o
 .text.rt_list_remove
                0x08003354       0x38 ./rt-thread/src/scheduler.o
 .text.rt_list_isempty
                0x0800338c       0x24 ./rt-thread/src/scheduler.o
 .text._scheduler_stack_check
                0x080033b0       0x94 ./rt-thread/src/scheduler.o
 .text._scheduler_get_highest_priority_thread
                0x08003444       0x3c ./rt-thread/src/scheduler.o
 .text.rt_system_scheduler_init
                0x08003480       0x48 ./rt-thread/src/scheduler.o
                0x08003480                rt_system_scheduler_init
 .text.rt_system_scheduler_start
                0x080034c8       0x3c ./rt-thread/src/scheduler.o
                0x080034c8                rt_system_scheduler_start
 .text.rt_schedule
                0x08003504      0x19c ./rt-thread/src/scheduler.o
                0x08003504                rt_schedule
 .text.rt_schedule_insert_thread
                0x080036a0       0xac ./rt-thread/src/scheduler.o
                0x080036a0                rt_schedule_insert_thread
 .text.rt_schedule_remove_thread
                0x0800374c       0x70 ./rt-thread/src/scheduler.o
                0x0800374c                rt_schedule_remove_thread
 .text.rt_enter_critical
                0x080037bc       0x30 ./rt-thread/src/scheduler.o
                0x080037bc                rt_enter_critical
 .text.rt_exit_critical
                0x080037ec       0x58 ./rt-thread/src/scheduler.o
                0x080037ec                rt_exit_critical
 .text.rt_critical_level
                0x08003844       0x1c ./rt-thread/src/scheduler.o
                0x08003844                rt_critical_level
 .text.rt_list_init
                0x08003860       0x24 ./rt-thread/src/thread.o
 .text.rt_list_remove
                0x08003884       0x38 ./rt-thread/src/thread.o
 .text._thread_exit
                0x080038bc       0x44 ./rt-thread/src/thread.o
 .text._thread_timeout
                0x08003900       0x8c ./rt-thread/src/thread.o
 .text._thread_init
                0x0800398c       0xfc ./rt-thread/src/thread.o
 .text.rt_thread_init
                0x08003a88       0x70 ./rt-thread/src/thread.o
                0x08003a88                rt_thread_init
 .text.rt_thread_self
                0x08003af8       0x18 ./rt-thread/src/thread.o
                0x08003af8                rt_thread_self
 .text.rt_thread_startup
                0x08003b10       0x94 ./rt-thread/src/thread.o
                0x08003b10                rt_thread_startup
 .text.rt_thread_detach
                0x08003ba4       0xb0 ./rt-thread/src/thread.o
                0x08003ba4                rt_thread_detach
 .text.rt_thread_create
                0x08003c54       0x64 ./rt-thread/src/thread.o
                0x08003c54                rt_thread_create
 .text.rt_thread_delete
                0x08003cb8       0xb0 ./rt-thread/src/thread.o
                0x08003cb8                rt_thread_delete
 .text.rt_thread_sleep
                0x08003d68       0x94 ./rt-thread/src/thread.o
                0x08003d68                rt_thread_sleep
 .text.rt_thread_delay
                0x08003dfc       0x18 ./rt-thread/src/thread.o
                0x08003dfc                rt_thread_delay
 .text.rt_thread_mdelay
                0x08003e14       0x20 ./rt-thread/src/thread.o
                0x08003e14                rt_thread_mdelay
 .text.rt_thread_control
                0x08003e34       0xf0 ./rt-thread/src/thread.o
                0x08003e34                rt_thread_control
 .text.rt_thread_suspend
                0x08003f24       0xd0 ./rt-thread/src/thread.o
                0x08003f24                rt_thread_suspend
 .text.rt_thread_resume
                0x08003ff4       0x98 ./rt-thread/src/thread.o
                0x08003ff4                rt_thread_resume
 .text.rt_list_init
                0x0800408c       0x24 ./rt-thread/src/timer.o
 .text.rt_list_insert_after
                0x080040b0       0x34 ./rt-thread/src/timer.o
 .text.rt_list_remove
                0x080040e4       0x38 ./rt-thread/src/timer.o
 .text.rt_list_isempty
                0x0800411c       0x24 ./rt-thread/src/timer.o
 .text._timer_init
                0x08004140       0x68 ./rt-thread/src/timer.o
 .text._timer_list_next_timeout
                0x080041a8       0x48 ./rt-thread/src/timer.o
 .text._timer_remove
                0x080041f0       0x34 ./rt-thread/src/timer.o
 .text.rt_timer_init
                0x08004224       0x80 ./rt-thread/src/timer.o
                0x08004224                rt_timer_init
 .text.rt_timer_detach
                0x080042a4       0x90 ./rt-thread/src/timer.o
                0x080042a4                rt_timer_detach
 .text.rt_timer_start
                0x08004334      0x230 ./rt-thread/src/timer.o
                0x08004334                rt_timer_start
 .text.rt_timer_stop
                0x08004564       0x94 ./rt-thread/src/timer.o
                0x08004564                rt_timer_stop
 .text.rt_timer_control
                0x080045f8       0xfc ./rt-thread/src/timer.o
                0x080045f8                rt_timer_control
 .text.rt_timer_check
                0x080046f4      0x108 ./rt-thread/src/timer.o
                0x080046f4                rt_timer_check
 .text.rt_soft_timer_check
                0x080047fc      0x120 ./rt-thread/src/timer.o
                0x080047fc                rt_soft_timer_check
 .text._timer_thread_entry
                0x0800491c       0x5c ./rt-thread/src/timer.o
 .text.rt_system_timer_init
                0x08004978       0x34 ./rt-thread/src/timer.o
                0x08004978                rt_system_timer_init
 .text.rt_system_timer_thread_init
                0x080049ac       0x68 ./rt-thread/src/timer.o
                0x080049ac                rt_system_timer_thread_init
 .text.rt_hw_stack_init
                0x08004a14       0x90 ./rt-thread/libcpu/arm/cortex-m4/cpuport.o
                0x08004a14                rt_hw_stack_init
 .text.usage_fault_track
                0x08004aa4       0xc4 ./rt-thread/libcpu/arm/cortex-m4/cpuport.o
 .text.bus_fault_track
                0x08004b68       0xcc ./rt-thread/libcpu/arm/cortex-m4/cpuport.o
 .text.mem_manage_fault_track
                0x08004c34       0xb4 ./rt-thread/libcpu/arm/cortex-m4/cpuport.o
 .text.hard_fault_track
                0x08004ce8       0x78 ./rt-thread/libcpu/arm/cortex-m4/cpuport.o
 .text.rt_hw_hard_fault_exception
                0x08004d60      0x184 ./rt-thread/libcpu/arm/cortex-m4/cpuport.o
                0x08004d60                rt_hw_hard_fault_exception
 .text.rt_hw_cpu_reset
                0x08004ee4       0x1c ./rt-thread/libcpu/arm/cortex-m4/cpuport.o
                0x08004ee4                rt_hw_cpu_reset
 .text.__rt_ffs
                0x08004f00       0x2c ./rt-thread/libcpu/arm/cortex-m4/cpuport.o
                0x08004f00                __rt_ffs
 .text.rt_list_isempty
                0x08004f2c       0x24 ./rt-thread/components/finsh/cmd.o
 .text.rt_list_len
                0x08004f50       0x38 ./rt-thread/components/finsh/cmd.o
 .text.clear    0x08004f88       0x14 ./rt-thread/components/finsh/cmd.o
 .text.version  0x08004f9c       0x10 ./rt-thread/components/finsh/cmd.o
                0x08004f9c                version
 .text.object_split
                0x08004fac       0x28 ./rt-thread/components/finsh/cmd.o
 .text.list_find_init
                0x08004fd4       0x48 ./rt-thread/components/finsh/cmd.o
 .text.list_get_next
                0x0800501c       0xc0 ./rt-thread/components/finsh/cmd.o
 .text.list_thread
                0x080050dc      0x210 ./rt-thread/components/finsh/cmd.o
                0x080050dc                list_thread
 .text.show_wait_queue
                0x080052ec       0x50 ./rt-thread/components/finsh/cmd.o
 .text.list_sem
                0x0800533c      0x124 ./rt-thread/components/finsh/cmd.o
                0x0800533c                list_sem
 .text.list_event
                0x08005460      0x114 ./rt-thread/components/finsh/cmd.o
                0x08005460                list_event
 .text.list_mutex
                0x08005574       0xe4 ./rt-thread/components/finsh/cmd.o
                0x08005574                list_mutex
 .text.list_mailbox
                0x08005658      0x134 ./rt-thread/components/finsh/cmd.o
                0x08005658                list_mailbox
 .text.list_msgqueue
                0x0800578c      0x124 ./rt-thread/components/finsh/cmd.o
                0x0800578c                list_msgqueue
 .text.list_mempool
                0x080058b0      0x140 ./rt-thread/components/finsh/cmd.o
                0x080058b0                list_mempool
 .text.list_timer
                0x080059f0      0x124 ./rt-thread/components/finsh/cmd.o
                0x080059f0                list_timer
 .text.list_device
                0x08005b14       0xfc ./rt-thread/components/finsh/cmd.o
                0x08005b14                list_device
 .text.cmd_list
                0x08005c10      0x1c4 ./rt-thread/components/finsh/cmd.o
                0x08005c10                cmd_list
 .text.msh_help
                0x08005dd4       0x5c ./rt-thread/components/finsh/msh.o
                0x08005dd4                msh_help
 .text.cmd_ps   0x08005e30       0x18 ./rt-thread/components/finsh/msh.o
                0x08005e30                cmd_ps
 .text.cmd_free
                0x08005e48       0x5c ./rt-thread/components/finsh/msh.o
                0x08005e48                cmd_free
 .text.msh_split
                0x08005ea4      0x170 ./rt-thread/components/finsh/msh.o
 .text.msh_get_cmd
                0x08006014       0x64 ./rt-thread/components/finsh/msh.o
 .text._msh_exec_cmd
                0x08006078       0xd4 ./rt-thread/components/finsh/msh.o
 .text.msh_exec
                0x0800614c       0xa0 ./rt-thread/components/finsh/msh.o
                0x0800614c                msh_exec
 .text.str_common
                0x080061ec       0x4c ./rt-thread/components/finsh/msh.o
 .text.msh_auto_complete_path
                0x08006238      0x228 ./rt-thread/components/finsh/msh.o
                0x08006238                msh_auto_complete_path
 .text.msh_auto_complete
                0x08006460       0xe4 ./rt-thread/components/finsh/msh.o
                0x08006460                msh_auto_complete
 .text.msh_readline
                0x08006544       0xa4 ./rt-thread/components/finsh/msh_file.o
 .text.msh_exec_script
                0x080065e8      0x17c ./rt-thread/components/finsh/msh_file.o
                0x080065e8                msh_exec_script
 .text.cmd_ls   0x08006764       0x34 ./rt-thread/components/finsh/msh_file.o
 .text.cmd_cp   0x08006798       0x44 ./rt-thread/components/finsh/msh_file.o
 .text.cmd_mv   0x080067dc      0x138 ./rt-thread/components/finsh/msh_file.o
 .text.cmd_cat  0x08006914       0x58 ./rt-thread/components/finsh/msh_file.o
 .text.directory_delete_for_msh
                0x0800696c      0x13c ./rt-thread/components/finsh/msh_file.o
 .text.cmd_rm   0x08006aa8      0x1c4 ./rt-thread/components/finsh/msh_file.o
 .text.cmd_cd   0x08006c6c       0x58 ./rt-thread/components/finsh/msh_file.o
 .text.cmd_pwd  0x08006cc4       0x24 ./rt-thread/components/finsh/msh_file.o
 .text.cmd_mkdir
                0x08006ce8       0x40 ./rt-thread/components/finsh/msh_file.o
 .text.cmd_mkfs
                0x08006d28       0x90 ./rt-thread/components/finsh/msh_file.o
 .text.cmd_mount
                0x08006db8       0xe0 ./rt-thread/components/finsh/msh_file.o
 .text.cmd_umount
                0x08006e98       0x64 ./rt-thread/components/finsh/msh_file.o
 .text.cmd_df   0x08006efc       0x70 ./rt-thread/components/finsh/msh_file.o
 .text.cmd_echo
                0x08006f6c       0x94 ./rt-thread/components/finsh/msh_file.o
 .text.cmd_tail
                0x08007000      0x1bc ./rt-thread/components/finsh/msh_file.o
 .text.msh_isint
                0x080071bc       0x68 ./rt-thread/components/finsh/msh_parse.o
                0x080071bc                msh_isint
 .text.finsh_get_prompt
                0x08007224       0x98 ./rt-thread/components/finsh/shell.o
                0x08007224                finsh_get_prompt
 .text.finsh_set_prompt_mode
                0x080072bc       0x48 ./rt-thread/components/finsh/shell.o
                0x080072bc                finsh_set_prompt_mode
 .text.finsh_getchar
                0x08007304       0x90 ./rt-thread/components/finsh/shell.o
                0x08007304                finsh_getchar
 .text.finsh_rx_ind
                0x08007394       0x3c ./rt-thread/components/finsh/shell.o
 .text.finsh_set_device
                0x080073d0       0xd8 ./rt-thread/components/finsh/shell.o
                0x080073d0                finsh_set_device
 .text.shell_auto_complete
                0x080074a8       0x34 ./rt-thread/components/finsh/shell.o
 .text.shell_handle_history
                0x080074dc       0x34 ./rt-thread/components/finsh/shell.o
 .text.shell_push_history
                0x08007510      0x160 ./rt-thread/components/finsh/shell.o
 .text.finsh_thread_entry
                0x08007670      0x5d0 ./rt-thread/components/finsh/shell.o
                0x08007670                finsh_thread_entry
 .text.finsh_system_function_init
                0x08007c40       0x2c ./rt-thread/components/finsh/shell.o
                0x08007c40                finsh_system_function_init
 .text.finsh_system_init
                0x08007c6c       0x9c ./rt-thread/components/finsh/shell.o
                0x08007c6c                finsh_system_init
 .text._serial_poll_rx
                0x08007d08       0x80 ./rt-thread/components/drivers/serial/serial.o
 .text._serial_poll_tx
                0x08007d88       0x7c ./rt-thread/components/drivers/serial/serial.o
 .text._serial_int_rx
                0x08007e04       0xd8 ./rt-thread/components/drivers/serial/serial.o
 .text._serial_int_tx
                0x08007edc       0xc4 ./rt-thread/components/drivers/serial/serial.o
 .text._serial_check_buffer_size
                0x08007fa0       0x38 ./rt-thread/components/drivers/serial/serial.o
 .text._serial_fifo_calc_recved_len
                0x08007fd8       0x88 ./rt-thread/components/drivers/serial/serial.o
 .text.rt_dma_calc_recved_len
                0x08008060       0x18 ./rt-thread/components/drivers/serial/serial.o
 .text.rt_dma_recv_update_get_index
                0x08008078       0xa4 ./rt-thread/components/drivers/serial/serial.o
 .text.rt_dma_recv_update_put_index
                0x0800811c       0xf8 ./rt-thread/components/drivers/serial/serial.o
 .text._serial_dma_rx
                0x08008214      0x198 ./rt-thread/components/drivers/serial/serial.o
 .text._serial_dma_tx
                0x080083ac       0x70 ./rt-thread/components/drivers/serial/serial.o
 .text.rt_serial_init
                0x0800841c       0x5c ./rt-thread/components/drivers/serial/serial.o
 .text.rt_serial_open
                0x08008478      0x36c ./rt-thread/components/drivers/serial/serial.o
 .text.rt_serial_close
                0x080087e4      0x1e0 ./rt-thread/components/drivers/serial/serial.o
 .text.rt_serial_read
                0x080089c4       0x84 ./rt-thread/components/drivers/serial/serial.o
 .text.rt_serial_write
                0x08008a48       0x84 ./rt-thread/components/drivers/serial/serial.o
 .text.rt_serial_control
                0x08008acc       0xd0 ./rt-thread/components/drivers/serial/serial.o
 .text.rt_hw_serial_register
                0x08008b9c       0x9c ./rt-thread/components/drivers/serial/serial.o
                0x08008b9c                rt_hw_serial_register
 .text.rt_hw_serial_isr
                0x08008c38      0x264 ./rt-thread/components/drivers/serial/serial.o
                0x08008c38                rt_hw_serial_isr
 .text._pin_read
                0x08008e9c       0x60 ./rt-thread/components/drivers/misc/pin.o
 .text._pin_write
                0x08008efc       0x5c ./rt-thread/components/drivers/misc/pin.o
 .text._pin_control
                0x08008f58       0x58 ./rt-thread/components/drivers/misc/pin.o
 .text.rt_device_pin_register
                0x08008fb0       0x74 ./rt-thread/components/drivers/misc/pin.o
                0x08008fb0                rt_device_pin_register
 .text.rt_pin_mode
                0x08009024       0x40 ./rt-thread/components/drivers/misc/pin.o
                0x08009024                rt_pin_mode
 .text.rt_pin_write
                0x08009064       0x40 ./rt-thread/components/drivers/misc/pin.o
                0x08009064                rt_pin_write
 .text.rt_pin_read
                0x080090a4       0x3c ./rt-thread/components/drivers/misc/pin.o
                0x080090a4                rt_pin_read
 .text.rt_pin_get
                0x080090e0       0x60 ./rt-thread/components/drivers/misc/pin.o
                0x080090e0                rt_pin_get
 .text._pin_cmd_conv
                0x08009140       0xb4 ./rt-thread/components/drivers/misc/pin.o
 .text._pin_cmd_print_usage
                0x080091f4       0x58 ./rt-thread/components/drivers/misc/pin.o
 .text._pin_cmd_get
                0x0800924c       0x5c ./rt-thread/components/drivers/misc/pin.o
 .text._pin_cmd_mode
                0x080092a8      0x10c ./rt-thread/components/drivers/misc/pin.o
 .text._pin_cmd_read
                0x080093b4       0x90 ./rt-thread/components/drivers/misc/pin.o
 .text._pin_cmd_write
                0x08009444       0xe4 ./rt-thread/components/drivers/misc/pin.o
 .text._pin_cmd
                0x08009528       0xac ./rt-thread/components/drivers/misc/pin.o
 .text.rt_list_init
                0x080095d4       0x24 ./rt-thread/components/drivers/ipc/completion.o
 .text.rt_list_insert_before
                0x080095f8       0x34 ./rt-thread/components/drivers/ipc/completion.o
 .text.rt_list_isempty
                0x0800962c       0x24 ./rt-thread/components/drivers/ipc/completion.o
 .text.rt_completion_init
                0x08009650       0x44 ./rt-thread/components/drivers/ipc/completion.o
                0x08009650                rt_completion_init
 .text.rt_completion_wait
                0x08009694      0x15c ./rt-thread/components/drivers/ipc/completion.o
                0x08009694                rt_completion_wait
 .text.rt_completion_done
                0x080097f0       0x70 ./rt-thread/components/drivers/ipc/completion.o
                0x080097f0                rt_completion_done
 .text.rt_list_init
                0x08009860       0x24 ./rt-thread/components/drivers/ipc/dataqueue.o
 .text.rt_list_insert_before
                0x08009884       0x34 ./rt-thread/components/drivers/ipc/dataqueue.o
 .text.rt_list_isempty
                0x080098b8       0x24 ./rt-thread/components/drivers/ipc/dataqueue.o
 .text.rt_data_queue_init
                0x080098dc       0xc0 ./rt-thread/components/drivers/ipc/dataqueue.o
                0x080098dc                rt_data_queue_init
 .text.rt_data_queue_push
                0x0800999c      0x240 ./rt-thread/components/drivers/ipc/dataqueue.o
                0x0800999c                rt_data_queue_push
 .text.rt_data_queue_pop
                0x08009bdc      0x298 ./rt-thread/components/drivers/ipc/dataqueue.o
                0x08009bdc                rt_data_queue_pop
 .text.rt_data_queue_peek
                0x08009e74       0xa0 ./rt-thread/components/drivers/ipc/dataqueue.o
                0x08009e74                rt_data_queue_peek
 .text.rt_data_queue_reset
                0x08009f14       0xf0 ./rt-thread/components/drivers/ipc/dataqueue.o
                0x08009f14                rt_data_queue_reset
 .text.rt_data_queue_deinit
                0x0800a004       0x6c ./rt-thread/components/drivers/ipc/dataqueue.o
                0x0800a004                rt_data_queue_deinit
 .text.rt_data_queue_len
                0x0800a070       0xc4 ./rt-thread/components/drivers/ipc/dataqueue.o
                0x0800a070                rt_data_queue_len
 .text.dfs_init
                0x0800a134       0x7c ./rt-thread/components/dfs/src/dfs.o
                0x0800a134                dfs_init
 .text.dfs_lock
                0x0800a1b0       0x48 ./rt-thread/components/dfs/src/dfs.o
                0x0800a1b0                dfs_lock
 .text.dfs_unlock
                0x0800a1f8       0x14 ./rt-thread/components/dfs/src/dfs.o
                0x0800a1f8                dfs_unlock
 .text.fd_alloc
                0x0800a20c      0x10c ./rt-thread/components/dfs/src/dfs.o
 .text.fd_new   0x0800a318       0x78 ./rt-thread/components/dfs/src/dfs.o
                0x0800a318                fd_new
 .text.fd_get   0x0800a390       0x70 ./rt-thread/components/dfs/src/dfs.o
                0x0800a390                fd_get
 .text.fd_put   0x0800a400       0x88 ./rt-thread/components/dfs/src/dfs.o
                0x0800a400                fd_put
 .text.fd_is_open
                0x0800a488       0xe8 ./rt-thread/components/dfs/src/dfs.o
                0x0800a488                fd_is_open
 .text.dfs_subdir
                0x0800a570       0x50 ./rt-thread/components/dfs/src/dfs.o
                0x0800a570                dfs_subdir
 .text.dfs_normalize_path
                0x0800a5c0      0x208 ./rt-thread/components/dfs/src/dfs.o
                0x0800a5c0                dfs_normalize_path
 .text.dfs_fdtable_get
                0x0800a7c8       0x1c ./rt-thread/components/dfs/src/dfs.o
                0x0800a7c8                dfs_fdtable_get
 .text.list_fd  0x0800a7e4      0x180 ./rt-thread/components/dfs/src/dfs.o
                0x0800a7e4                list_fd
 .text.dfs_file_open
                0x0800a964      0x148 ./rt-thread/components/dfs/src/dfs_file.o
                0x0800a964                dfs_file_open
 .text.dfs_file_close
                0x0800aaac       0x54 ./rt-thread/components/dfs/src/dfs_file.o
                0x0800aaac                dfs_file_close
 .text.dfs_file_read
                0x0800ab00       0x58 ./rt-thread/components/dfs/src/dfs_file.o
                0x0800ab00                dfs_file_read
 .text.dfs_file_getdents
                0x0800ab58       0x48 ./rt-thread/components/dfs/src/dfs_file.o
                0x0800ab58                dfs_file_getdents
 .text.dfs_file_unlink
                0x0800aba0       0xcc ./rt-thread/components/dfs/src/dfs_file.o
                0x0800aba0                dfs_file_unlink
 .text.dfs_file_write
                0x0800ac6c       0x40 ./rt-thread/components/dfs/src/dfs_file.o
                0x0800ac6c                dfs_file_write
 .text.dfs_file_lseek
                0x0800acac       0x4c ./rt-thread/components/dfs/src/dfs_file.o
                0x0800acac                dfs_file_lseek
 .text.dfs_file_stat
                0x0800acf8      0x12c ./rt-thread/components/dfs/src/dfs_file.o
                0x0800acf8                dfs_file_stat
 .text.dfs_file_rename
                0x0800ae24       0xdc ./rt-thread/components/dfs/src/dfs_file.o
                0x0800ae24                dfs_file_rename
 .text.ls       0x0800af00      0x120 ./rt-thread/components/dfs/src/dfs_file.o
                0x0800af00                ls
 .text.cat      0x0800b020       0x7c ./rt-thread/components/dfs/src/dfs_file.o
                0x0800b020                cat
 .text.copyfile
                0x0800b09c       0xe0 ./rt-thread/components/dfs/src/dfs_file.o
 .text.copydir  0x0800b17c      0x18c ./rt-thread/components/dfs/src/dfs_file.o
 .text._get_path_lastname
                0x0800b308       0x2c ./rt-thread/components/dfs/src/dfs_file.o
 .text.copy     0x0800b334      0x15c ./rt-thread/components/dfs/src/dfs_file.o
                0x0800b334                copy
 .text.dfs_filesystem_lookup
                0x0800b490       0xc4 ./rt-thread/components/dfs/src/dfs_fs.o
                0x0800b490                dfs_filesystem_lookup
 .text.dfs_mount
                0x0800b554      0x244 ./rt-thread/components/dfs/src/dfs_fs.o
                0x0800b554                dfs_mount
 .text.dfs_unmount
                0x0800b798       0xdc ./rt-thread/components/dfs/src/dfs_fs.o
                0x0800b798                dfs_unmount
 .text.dfs_mkfs
                0x0800b874      0x104 ./rt-thread/components/dfs/src/dfs_fs.o
                0x0800b874                dfs_mkfs
 .text.dfs_statfs
                0x0800b978       0x40 ./rt-thread/components/dfs/src/dfs_fs.o
                0x0800b978                dfs_statfs
 .text.df       0x0800b9b8      0x190 ./rt-thread/components/dfs/src/dfs_fs.o
                0x0800b9b8                df
 .text.open     0x0800bb48       0x6c ./rt-thread/components/dfs/src/dfs_posix.o
                0x0800bb48                open
 .text.close    0x0800bbb4       0x54 ./rt-thread/components/dfs/src/dfs_posix.o
                0x0800bbb4                close
 .text.read     0x0800bc08       0x5c ./rt-thread/components/dfs/src/dfs_posix.o
                0x0800bc08                read
 .text.write    0x0800bc64       0x5c ./rt-thread/components/dfs/src/dfs_posix.o
                0x0800bc64                write
 .text.lseek    0x0800bcc0       0xb4 ./rt-thread/components/dfs/src/dfs_posix.o
                0x0800bcc0                lseek
 .text.rename   0x0800bd74       0x30 ./rt-thread/components/dfs/src/dfs_posix.o
                0x0800bd74                rename
 .text.unlink   0x0800bda4       0x2c ./rt-thread/components/dfs/src/dfs_posix.o
                0x0800bda4                unlink
 .text.stat     0x0800bdd0       0x30 ./rt-thread/components/dfs/src/dfs_posix.o
                0x0800bdd0                stat
 .text.mkdir    0x0800be00       0x78 ./rt-thread/components/dfs/src/dfs_posix.o
                0x0800be00                mkdir
 .text.opendir  0x0800be78       0x98 ./rt-thread/components/dfs/src/dfs_posix.o
                0x0800be78                opendir
 .text.readdir  0x0800bf10       0xbc ./rt-thread/components/dfs/src/dfs_posix.o
                0x0800bf10                readdir
 .text.rewinddir
                0x0800bfcc       0x54 ./rt-thread/components/dfs/src/dfs_posix.o
                0x0800bfcc                rewinddir
 .text.closedir
                0x0800c020       0x60 ./rt-thread/components/dfs/src/dfs_posix.o
                0x0800c020                closedir
 .text.chdir    0x0800c080       0xac ./rt-thread/components/dfs/src/dfs_posix.o
                0x0800c080                chdir
 .text.getcwd   0x0800c12c       0x2c ./rt-thread/components/dfs/src/dfs_posix.o
                0x0800c12c                getcwd
 .text.NVIC_SetPriority
                0x0800c158       0x54 ./libraries/Drivers/drv_common.o
 .text.SysTick_Config
                0x0800c1ac       0x44 ./libraries/Drivers/drv_common.o
 .text.reboot   0x0800c1f0       0x18 ./libraries/Drivers/drv_common.o
 .text.rt_hw_systick_init
                0x0800c208       0x3c ./libraries/Drivers/drv_common.o
                0x0800c208                rt_hw_systick_init
 .text.SysTick_Handler
                0x0800c244       0x14 ./libraries/Drivers/drv_common.o
                0x0800c244                SysTick_Handler
 .text.rt_hw_board_init
                0x0800c258       0x34 ./libraries/Drivers/drv_common.o
                0x0800c258                rt_hw_board_init
 .text._pin_get
                0x0800c28c       0xb4 ./libraries/Drivers/drv_gpio.o
 .text._pin_write
                0x0800c340       0x54 ./libraries/Drivers/drv_gpio.o
 .text._pin_read
                0x0800c394       0x58 ./libraries/Drivers/drv_gpio.o
 .text._pin_mode
                0x0800c3ec       0xb0 ./libraries/Drivers/drv_gpio.o
 .text.bit2bitno
                0x0800c49c       0x40 ./libraries/Drivers/drv_gpio.o
 .text.get_pin_irq_map
                0x0800c4dc       0x34 ./libraries/Drivers/drv_gpio.o
 .text._pin_attach_irq
                0x0800c510      0x150 ./libraries/Drivers/drv_gpio.o
 .text._pin_dettach_irq
                0x0800c660       0xd8 ./libraries/Drivers/drv_gpio.o
 .text._pin_irq_enable
                0x0800c738      0x1ec ./libraries/Drivers/drv_gpio.o
 .text.pin_irq_hdr
                0x0800c924       0x54 ./libraries/Drivers/drv_gpio.o
 .text.GPIO_EXTI_IRQHandler
                0x0800c978       0x24 ./libraries/Drivers/drv_gpio.o
                0x0800c978                GPIO_EXTI_IRQHandler
 .text.EINT0_IRQHandler
                0x0800c99c       0x28 ./libraries/Drivers/drv_gpio.o
                0x0800c99c                EINT0_IRQHandler
 .text.EINT1_IRQHandler
                0x0800c9c4       0x28 ./libraries/Drivers/drv_gpio.o
                0x0800c9c4                EINT1_IRQHandler
 .text.EINT2_IRQHandler
                0x0800c9ec       0x28 ./libraries/Drivers/drv_gpio.o
                0x0800c9ec                EINT2_IRQHandler
 .text.EINT3_IRQHandler
                0x0800ca14       0x28 ./libraries/Drivers/drv_gpio.o
                0x0800ca14                EINT3_IRQHandler
 .text.EINT4_IRQHandler
                0x0800ca3c       0x28 ./libraries/Drivers/drv_gpio.o
                0x0800ca3c                EINT4_IRQHandler
 .text.EINT9_5_IRQHandler
                0x0800ca64       0x94 ./libraries/Drivers/drv_gpio.o
                0x0800ca64                EINT9_5_IRQHandler
 .text.EINT15_10_IRQHandler
                0x0800caf8       0xc4 ./libraries/Drivers/drv_gpio.o
                0x0800caf8                EINT15_10_IRQHandler
 .text.rt_hw_pin_init
                0x0800cbbc       0x64 ./libraries/Drivers/drv_gpio.o
                0x0800cbbc                rt_hw_pin_init
 .text._uart_configure
                0x0800cc20      0x114 ./libraries/Drivers/drv_usart.o
 .text._uart_control
                0x0800cd34       0x90 ./libraries/Drivers/drv_usart.o
 .text._uart_putc
                0x0800cdc4       0x6c ./libraries/Drivers/drv_usart.o
 .text._uart_getc
                0x0800ce30       0x6c ./libraries/Drivers/drv_usart.o
 .text.usart_isr
                0x0800ce9c      0x100 ./libraries/Drivers/drv_usart.o
 .text.USART1_IRQHandler
                0x0800cf9c       0x1c ./libraries/Drivers/drv_usart.o
                0x0800cf9c                USART1_IRQHandler
 .text.rt_hw_usart_init
                0x0800cfb8       0xc8 ./libraries/Drivers/drv_usart.o
                0x0800cfb8                rt_hw_usart_init
 .text.Reset_Handler
                0x0800d080       0x4c ./libraries/APM32F4xx_Library/Device/Geehy/APM32F4xx/Source/gcc/startup_apm32f40x.o
                0x0800d080                Reset_Handler
 .text.Default_Handler
                0x0800d0cc        0x2 ./libraries/APM32F4xx_Library/Device/Geehy/APM32F4xx/Source/gcc/startup_apm32f40x.o
                0x0800d0cc                RTC_Alarm_IRQHandler
                0x0800d0cc                DebugMon_Handler
                0x0800d0cc                TMR1_UP_TMR10_IRQHandler
                0x0800d0cc                EMMC_IRQHandler
                0x0800d0cc                DMA2_STR1_IRQHandler
                0x0800d0cc                DMA2_STR5_IRQHandler
                0x0800d0cc                PVD_IRQHandler
                0x0800d0cc                SDIO_IRQHandler
                0x0800d0cc                TAMP_STAMP_IRQHandler
                0x0800d0cc                NMI_Handler
                0x0800d0cc                CAN2_RX1_IRQHandler
                0x0800d0cc                DCI_IRQHandler
                0x0800d0cc                I2C3_ER_IRQHandler
                0x0800d0cc                I2C2_EV_IRQHandler
                0x0800d0cc                CAN1_RX0_IRQHandler
                0x0800d0cc                FPU_IRQHandler
                0x0800d0cc                UsageFault_Handler
                0x0800d0cc                CAN2_SCE_IRQHandler
                0x0800d0cc                SPI1_IRQHandler
                0x0800d0cc                CAN2_RX0_IRQHandler
                0x0800d0cc                DMA2_STR3_IRQHandler
                0x0800d0cc                USART6_IRQHandler
                0x0800d0cc                OTG_HS1_WKUP_IRQHandler
                0x0800d0cc                USART3_IRQHandler
                0x0800d0cc                TMR1_TRG_COM_TMR11_IRQHandler
                0x0800d0cc                CAN1_RX1_IRQHandler
                0x0800d0cc                UART5_IRQHandler
                0x0800d0cc                I2C1_EV_IRQHandler
                0x0800d0cc                DMA1_STR7_IRQHandler
                0x0800d0cc                UART4_IRQHandler
                0x0800d0cc                BN_IRQHandler
                0x0800d0cc                Default_Handler
                0x0800d0cc                TMR5_IRQHandler
                0x0800d0cc                ADC_IRQHandler
                0x0800d0cc                TMR2_IRQHandler
                0x0800d0cc                TMR1_CC_IRQHandler
                0x0800d0cc                SM4_IRQHandler
                0x0800d0cc                CAN2_TX_IRQHandler
                0x0800d0cc                DMA1_STR6_IRQHandler
                0x0800d0cc                I2C3_EV_IRQHandler
                0x0800d0cc                DMA2_STR4_IRQHandler
                0x0800d0cc                RTC_WKUP_IRQHandler
                0x0800d0cc                DMA2_STR6_IRQHandler
                0x0800d0cc                TMR1_BRK_TMR9_IRQHandler
                0x0800d0cc                ETH_WKUP_IRQHandler
                0x0800d0cc                SPI2_IRQHandler
                0x0800d0cc                TMR8_BRK_TMR12_IRQHandler
                0x0800d0cc                DMA1_STR2_IRQHandler
                0x0800d0cc                MemManage_Handler
                0x0800d0cc                DMA2_STR0_IRQHandler
                0x0800d0cc                TMR6_DAC_IRQHandler
                0x0800d0cc                DMA1_STR3_IRQHandler
                0x0800d0cc                CAN1_TX_IRQHandler
                0x0800d0cc                SVC_Handler
                0x0800d0cc                DMA1_STR4_IRQHandler
                0x0800d0cc                RCM_IRQHandler
                0x0800d0cc                DMA1_STR1_IRQHandler
                0x0800d0cc                TMR7_IRQHandler
                0x0800d0cc                DMA2_STR2_IRQHandler
                0x0800d0cc                TMR4_IRQHandler
                0x0800d0cc                ETH_IRQHandler
                0x0800d0cc                DMA2_STR7_IRQHandler
                0x0800d0cc                TMR8_CC_IRQHandler
                0x0800d0cc                OTG_HS1_EP1_IN_IRQHandler
                0x0800d0cc                TMR3_IRQHandler
                0x0800d0cc                DMA1_STR0_IRQHandler
                0x0800d0cc                OTG_HS1_IRQHandler
                0x0800d0cc                OTG_FS_WKUP_IRQHandler
                0x0800d0cc                USART2_IRQHandler
                0x0800d0cc                SM3_IRQHandler
                0x0800d0cc                I2C2_ER_IRQHandler
                0x0800d0cc                CAN1_SCE_IRQHandler
                0x0800d0cc                FLASH_IRQHandler
                0x0800d0cc                BusFault_Handler
                0x0800d0cc                OTG_FS_IRQHandler
                0x0800d0cc                SPI3_IRQHandler
                0x0800d0cc                I2C1_ER_IRQHandler
                0x0800d0cc                TMR8_TRG_COM_TMR14_IRQHandler
                0x0800d0cc                DMA1_STR5_IRQHandler
                0x0800d0cc                OTG_HS1_EP1_OUT_IRQHandler
                0x0800d0cc                WWDT_IRQHandler
                0x0800d0cc                TMR8_UP_TMR13_IRQHandler
 *fill*         0x0800d0ce        0x2 00000000
 .text.SystemInit
                0x0800d0d0       0x68 ./libraries/APM32F4xx_Library/Device/Geehy/APM32F4xx/Source/system_apm32f4xx.o
                0x0800d0d0                SystemInit
 .text.SystemClockConfig
                0x0800d138       0xf0 ./libraries/APM32F4xx_Library/Device/Geehy/APM32F4xx/Source/system_apm32f4xx.o
 .text.EINT_ReadIntFlag
                0x0800d228       0x48 ./libraries/APM32F4xx_Library/APM32F4xx_StdPeriphDriver/src/apm32f4xx_eint.o
                0x0800d228                EINT_ReadIntFlag
 .text.EINT_ClearIntFlag
                0x0800d270       0x20 ./libraries/APM32F4xx_Library/APM32F4xx_StdPeriphDriver/src/apm32f4xx_eint.o
                0x0800d270                EINT_ClearIntFlag
 .text.GPIO_Config
                0x0800d290      0x120 ./libraries/APM32F4xx_Library/APM32F4xx_StdPeriphDriver/src/apm32f4xx_gpio.o
                0x0800d290                GPIO_Config
 .text.GPIO_ReadInputBit
                0x0800d3b0       0x34 ./libraries/APM32F4xx_Library/APM32F4xx_StdPeriphDriver/src/apm32f4xx_gpio.o
                0x0800d3b0                GPIO_ReadInputBit
 .text.GPIO_WriteBitValue
                0x0800d3e4       0x30 ./libraries/APM32F4xx_Library/APM32F4xx_StdPeriphDriver/src/apm32f4xx_gpio.o
                0x0800d3e4                GPIO_WriteBitValue
 .text.GPIO_ConfigPinAF
                0x0800d414       0xa4 ./libraries/APM32F4xx_Library/APM32F4xx_StdPeriphDriver/src/apm32f4xx_gpio.o
                0x0800d414                GPIO_ConfigPinAF
 .text.NVIC_ConfigPriorityGroup
                0x0800d4b8       0x28 ./libraries/APM32F4xx_Library/APM32F4xx_StdPeriphDriver/src/apm32f4xx_misc.o
                0x0800d4b8                NVIC_ConfigPriorityGroup
 .text.NVIC_EnableIRQRequest
                0x0800d4e0       0xfc ./libraries/APM32F4xx_Library/APM32F4xx_StdPeriphDriver/src/apm32f4xx_misc.o
                0x0800d4e0                NVIC_EnableIRQRequest
 .text.NVIC_DisableIRQRequest
                0x0800d5dc       0x38 ./libraries/APM32F4xx_Library/APM32F4xx_StdPeriphDriver/src/apm32f4xx_misc.o
                0x0800d5dc                NVIC_DisableIRQRequest
 .text.RCM_ReadSYSCLKFreq
                0x0800d614       0xb8 ./libraries/APM32F4xx_Library/APM32F4xx_StdPeriphDriver/src/apm32f4xx_rcm.o
                0x0800d614                RCM_ReadSYSCLKFreq
 .text.RCM_ReadHCLKFreq
                0x0800d6cc       0x4c ./libraries/APM32F4xx_Library/APM32F4xx_StdPeriphDriver/src/apm32f4xx_rcm.o
                0x0800d6cc                RCM_ReadHCLKFreq
 .text.RCM_ReadPCLKFreq
                0x0800d718       0x78 ./libraries/APM32F4xx_Library/APM32F4xx_StdPeriphDriver/src/apm32f4xx_rcm.o
                0x0800d718                RCM_ReadPCLKFreq
 .text.RCM_EnableAHB1PeriphClock
                0x0800d790       0x24 ./libraries/APM32F4xx_Library/APM32F4xx_StdPeriphDriver/src/apm32f4xx_rcm.o
                0x0800d790                RCM_EnableAHB1PeriphClock
 .text.RCM_EnableAPB2PeriphClock
                0x0800d7b4       0x24 ./libraries/APM32F4xx_Library/APM32F4xx_StdPeriphDriver/src/apm32f4xx_rcm.o
                0x0800d7b4                RCM_EnableAPB2PeriphClock
 .text.USART_Config
                0x0800d7d8      0x198 ./libraries/APM32F4xx_Library/APM32F4xx_StdPeriphDriver/src/apm32f4xx_usart.o
                0x0800d7d8                USART_Config
 .text.USART_Enable
                0x0800d970       0x20 ./libraries/APM32F4xx_Library/APM32F4xx_StdPeriphDriver/src/apm32f4xx_usart.o
                0x0800d970                USART_Enable
 .text.USART_TxData
                0x0800d990       0x2c ./libraries/APM32F4xx_Library/APM32F4xx_StdPeriphDriver/src/apm32f4xx_usart.o
                0x0800d990                USART_TxData
 .text.USART_RxData
                0x0800d9bc       0x20 ./libraries/APM32F4xx_Library/APM32F4xx_StdPeriphDriver/src/apm32f4xx_usart.o
                0x0800d9bc                USART_RxData
 .text.USART_EnableInterrupt
                0x0800d9dc       0x60 ./libraries/APM32F4xx_Library/APM32F4xx_StdPeriphDriver/src/apm32f4xx_usart.o
                0x0800d9dc                USART_EnableInterrupt
 .text.USART_DisableInterrupt
                0x0800da3c       0x60 ./libraries/APM32F4xx_Library/APM32F4xx_StdPeriphDriver/src/apm32f4xx_usart.o
                0x0800da3c                USART_DisableInterrupt
 .text.USART_ReadStatusFlag
                0x0800da9c       0x2c ./libraries/APM32F4xx_Library/APM32F4xx_StdPeriphDriver/src/apm32f4xx_usart.o
                0x0800da9c                USART_ReadStatusFlag
 .text.USART_ClearStatusFlag
                0x0800dac8       0x28 ./libraries/APM32F4xx_Library/APM32F4xx_StdPeriphDriver/src/apm32f4xx_usart.o
                0x0800dac8                USART_ClearStatusFlag
 .text.USART_ReadIntFlag
                0x0800daf0       0x80 ./libraries/APM32F4xx_Library/APM32F4xx_StdPeriphDriver/src/apm32f4xx_usart.o
                0x0800daf0                USART_ReadIntFlag
 .text.USART_ClearIntFlag
                0x0800db70       0x34 ./libraries/APM32F4xx_Library/APM32F4xx_StdPeriphDriver/src/apm32f4xx_usart.o
                0x0800db70                USART_ClearIntFlag
 .text.apm32_usart_init
                0x0800dba4       0x6c ./board/board.o
                0x0800dba4                apm32_usart_init
 .text.main     0x0800dc10       0x48 ./applications/main.o
                0x0800dc10                main
 .text.atoi     0x0800dc58        0x8 c:/rt-threadstudio/repo/extract/toolchain_support_packages/arm/gnu_tools_for_arm_embedded_processors/5.4.1/bin/../lib/gcc/arm-none-eabi/5.4.1/../../../../arm-none-eabi/lib/armv7e-m/fpu\libc.a(lib_a-atoi.o)
                0x0800dc58                atoi
 .text.__get_current_locale
                0x0800dc60       0x18 c:/rt-threadstudio/repo/extract/toolchain_support_packages/arm/gnu_tools_for_arm_embedded_processors/5.4.1/bin/../lib/gcc/arm-none-eabi/5.4.1/../../../../arm-none-eabi/lib/armv7e-m/fpu\libc.a(lib_a-locale.o)
 .text.__locale_ctype_ptr_l
                0x0800dc78        0x8 c:/rt-threadstudio/repo/extract/toolchain_support_packages/arm/gnu_tools_for_arm_embedded_processors/5.4.1/bin/../lib/gcc/arm-none-eabi/5.4.1/../../../../arm-none-eabi/lib/armv7e-m/fpu\libc.a(lib_a-locale.o)
                0x0800dc78                __locale_ctype_ptr_l
 .text.__locale_ctype_ptr
                0x0800dc80       0x14 c:/rt-threadstudio/repo/extract/toolchain_support_packages/arm/gnu_tools_for_arm_embedded_processors/5.4.1/bin/../lib/gcc/arm-none-eabi/5.4.1/../../../../arm-none-eabi/lib/armv7e-m/fpu\libc.a(lib_a-locale.o)
                0x0800dc80                __locale_ctype_ptr
 .text.__ascii_mbtowc
                0x0800dc94       0x2c c:/rt-threadstudio/repo/extract/toolchain_support_packages/arm/gnu_tools_for_arm_embedded_processors/5.4.1/bin/../lib/gcc/arm-none-eabi/5.4.1/../../../../arm-none-eabi/lib/armv7e-m/fpu\libc.a(lib_a-mbtowc_r.o)
                0x0800dc94                __ascii_mbtowc
 .text.memcmp   0x0800dcc0       0x64 c:/rt-threadstudio/repo/extract/toolchain_support_packages/arm/gnu_tools_for_arm_embedded_processors/5.4.1/bin/../lib/gcc/arm-none-eabi/5.4.1/../../../../arm-none-eabi/lib/armv7e-m/fpu\libc.a(lib_a-memcmp.o)
                0x0800dcc0                memcmp
 .text.strchr   0x0800dd24       0xd0 c:/rt-threadstudio/repo/extract/toolchain_support_packages/arm/gnu_tools_for_arm_embedded_processors/5.4.1/bin/../lib/gcc/arm-none-eabi/5.4.1/../../../../arm-none-eabi/lib/armv7e-m/fpu\libc.a(lib_a-strchr.o)
                0x0800dd24                strchr
 .text.strcpy   0x0800ddf4       0xbc c:/rt-threadstudio/repo/extract/toolchain_support_packages/arm/gnu_tools_for_arm_embedded_processors/5.4.1/bin/../lib/gcc/arm-none-eabi/5.4.1/../../../../arm-none-eabi/lib/armv7e-m/fpu\libc.a(lib_a-strcpy.o)
                0x0800ddf4                strcpy
 .text.strncat  0x0800deb0       0x5c c:/rt-threadstudio/repo/extract/toolchain_support_packages/arm/gnu_tools_for_arm_embedded_processors/5.4.1/bin/../lib/gcc/arm-none-eabi/5.4.1/../../../../arm-none-eabi/lib/armv7e-m/fpu\libc.a(lib_a-strncat.o)
                0x0800deb0                strncat
 .text.strncmp  0x0800df0c       0xa0 c:/rt-threadstudio/repo/extract/toolchain_support_packages/arm/gnu_tools_for_arm_embedded_processors/5.4.1/bin/../lib/gcc/arm-none-eabi/5.4.1/../../../../arm-none-eabi/lib/armv7e-m/fpu\libc.a(lib_a-strncmp.o)
                0x0800df0c                strncmp
 .text.strncpy  0x0800dfac       0x68 c:/rt-threadstudio/repo/extract/toolchain_support_packages/arm/gnu_tools_for_arm_embedded_processors/5.4.1/bin/../lib/gcc/arm-none-eabi/5.4.1/../../../../arm-none-eabi/lib/armv7e-m/fpu\libc.a(lib_a-strncpy.o)
                0x0800dfac                strncpy
 .text.strrchr  0x0800e014       0x24 c:/rt-threadstudio/repo/extract/toolchain_support_packages/arm/gnu_tools_for_arm_embedded_processors/5.4.1/bin/../lib/gcc/arm-none-eabi/5.4.1/../../../../arm-none-eabi/lib/armv7e-m/fpu\libc.a(lib_a-strrchr.o)
                0x0800e014                strrchr
 .text.critical_factorization
                0x0800e038       0xb8 c:/rt-threadstudio/repo/extract/toolchain_support_packages/arm/gnu_tools_for_arm_embedded_processors/5.4.1/bin/../lib/gcc/arm-none-eabi/5.4.1/../../../../arm-none-eabi/lib/armv7e-m/fpu\libc.a(lib_a-strstr.o)
 .text.two_way_long_needle
                0x0800e0f0      0x200 c:/rt-threadstudio/repo/extract/toolchain_support_packages/arm/gnu_tools_for_arm_embedded_processors/5.4.1/bin/../lib/gcc/arm-none-eabi/5.4.1/../../../../arm-none-eabi/lib/armv7e-m/fpu\libc.a(lib_a-strstr.o)
 .text.strstr   0x0800e2f0      0x220 c:/rt-threadstudio/repo/extract/toolchain_support_packages/arm/gnu_tools_for_arm_embedded_processors/5.4.1/bin/../lib/gcc/arm-none-eabi/5.4.1/../../../../arm-none-eabi/lib/armv7e-m/fpu\libc.a(lib_a-strstr.o)
                0x0800e2f0                strstr
 .text._strtol_l.isra.0
                0x0800e510      0x138 c:/rt-threadstudio/repo/extract/toolchain_support_packages/arm/gnu_tools_for_arm_embedded_processors/5.4.1/bin/../lib/gcc/arm-none-eabi/5.4.1/../../../../arm-none-eabi/lib/armv7e-m/fpu\libc.a(lib_a-strtol.o)
 .text.strtol   0x0800e648       0x2c c:/rt-threadstudio/repo/extract/toolchain_support_packages/arm/gnu_tools_for_arm_embedded_processors/5.4.1/bin/../lib/gcc/arm-none-eabi/5.4.1/../../../../arm-none-eabi/lib/armv7e-m/fpu\libc.a(lib_a-strtol.o)
                0x0800e648                strtol
 .text.__ascii_wctomb
                0x0800e674       0x1c c:/rt-threadstudio/repo/extract/toolchain_support_packages/arm/gnu_tools_for_arm_embedded_processors/5.4.1/bin/../lib/gcc/arm-none-eabi/5.4.1/../../../../arm-none-eabi/lib/armv7e-m/fpu\libc.a(lib_a-wctomb_r.o)
                0x0800e674                __ascii_wctomb
 *(.rodata)
 .rodata        0x0800e690       0x17 ./rt-thread/src/components.o
 *fill*         0x0800e6a7        0x1 00000000
 .rodata        0x0800e6a8       0xf4 ./rt-thread/src/device.o
 .rodata        0x0800e79c        0x8 ./rt-thread/src/idle.o
 .rodata        0x0800e7a4      0x4de ./rt-thread/src/ipc.o
 *fill*         0x0800ec82        0x2 00000000
 .rodata        0x0800ec84      0x1cf ./rt-thread/src/kservice.o
 *fill*         0x0800ee53        0x1 00000000
 .rodata        0x0800ee54      0x41b ./rt-thread/src/mem.o
 *fill*         0x0800f26f        0x1 00000000
 .rodata        0x0800f270       0x91 ./rt-thread/src/object.o
 *fill*         0x0800f301        0x3 00000000
 .rodata        0x0800f304       0x65 ./rt-thread/src/scheduler.o
 *fill*         0x0800f369        0x3 00000000
 .rodata        0x0800f36c      0x19f ./rt-thread/src/thread.o
 *fill*         0x0800f50b        0x1 00000000
 .rodata        0x0800f50c      0x10e ./rt-thread/src/timer.o
 *fill*         0x0800f61a        0x2 00000000
 .rodata        0x0800f61c      0x2ce ./rt-thread/libcpu/arm/cortex-m4/cpuport.o
 *fill*         0x0800f8ea        0x2 00000000
 .rodata        0x0800f8ec      0x804 ./rt-thread/components/finsh/cmd.o
 .rodata        0x080100f0       0xac ./rt-thread/components/finsh/msh.o
 .rodata        0x0801019c      0x496 ./rt-thread/components/finsh/msh_file.o
 *fill*         0x08010632        0x2 00000000
 .rodata        0x08010634       0x91 ./rt-thread/components/finsh/shell.o
 *fill*         0x080106c5        0x3 00000000
 .rodata        0x080106c8      0x19a ./rt-thread/components/drivers/serial/serial.o
 *fill*         0x08010862        0x2 00000000
 .rodata        0x08010864      0x2aa ./rt-thread/components/drivers/misc/pin.o
 *fill*         0x08010b0e        0x2 00000000
 .rodata        0x08010b10       0xd7 ./rt-thread/components/drivers/ipc/completion.o
 *fill*         0x08010be7        0x1 00000000
 .rodata        0x08010be8       0xf4 ./rt-thread/components/drivers/ipc/dataqueue.o
 .rodata        0x08010cdc      0x12c ./rt-thread/components/dfs/src/dfs.o
 .rodata        0x08010e08      0x1cc ./rt-thread/components/dfs/src/dfs_file.o
 .rodata        0x08010fd4      0x1c4 ./rt-thread/components/dfs/src/dfs_fs.o
 .rodata        0x08011198        0x4 ./rt-thread/components/dfs/src/dfs_posix.o
 .rodata        0x0801119c        0x6 ./libraries/Drivers/drv_common.o
 *fill*         0x080111a2        0x2 00000000
 .rodata        0x080111a4        0x4 ./libraries/Drivers/drv_gpio.o
 .rodata        0x080111a8       0x5c ./libraries/Drivers/drv_usart.o
 .rodata        0x08011204       0x18 ./libraries/APM32F4xx_Library/APM32F4xx_StdPeriphDriver/src/apm32f4xx_rcm.o
 .rodata        0x0801121c       0x12 ./applications/main.o
 *(.rodata*)
 *fill*         0x0801122e        0x2 00000000
 .rodata.__FUNCTION__.5506
                0x08011230       0x14 ./rt-thread/src/components.o
 .rodata.__FUNCTION__.5415
                0x08011244        0xf ./rt-thread/src/device.o
 *fill*         0x08011253        0x1 00000000
 .rodata.__FUNCTION__.5420
                0x08011254       0x10 ./rt-thread/src/device.o
 .rodata.__FUNCTION__.5427
                0x08011264        0xf ./rt-thread/src/device.o
 *fill*         0x08011273        0x1 00000000
 .rodata.__FUNCTION__.5434
                0x08011274       0x10 ./rt-thread/src/device.o
 .rodata.__FUNCTION__.5447
                0x08011284       0x1a ./rt-thread/src/device.o
 *fill*         0x0801129e        0x2 00000000
 .rodata.__FUNCTION__.5499
                0x080112a0        0xc ./rt-thread/src/ipc.o
 .rodata.__FUNCTION__.5523
                0x080112ac        0xc ./rt-thread/src/ipc.o
 .rodata.__FUNCTION__.5480
                0x080112b8       0x12 ./rt-thread/src/ipc.o
 *fill*         0x080112ca        0x2 00000000
 .rodata.__FUNCTION__.5535
                0x080112cc        0xf ./rt-thread/src/ipc.o
 *fill*         0x080112db        0x1 00000000
 .rodata.__FUNCTION__.5549
                0x080112dc        0xe ./rt-thread/src/ipc.o
 *fill*         0x080112ea        0x2 00000000
 .rodata.__FUNCTION__.5573
                0x080112ec        0xe ./rt-thread/src/ipc.o
 *fill*         0x080112fa        0x2 00000000
 .rodata.__FUNCTION__.5585
                0x080112fc       0x11 ./rt-thread/src/ipc.o
 *fill*         0x0801130d        0x3 00000000
 .rodata.large_digits.5586
                0x08011310       0x11 ./rt-thread/src/kservice.o
 *fill*         0x08011321        0x3 00000000
 .rodata.small_digits.5585
                0x08011324       0x11 ./rt-thread/src/kservice.o
 *fill*         0x08011335        0x3 00000000
 .rodata.__FUNCTION__.5736
                0x08011338       0x14 ./rt-thread/src/kservice.o
 .rodata.__FUNCTION__.5723
                0x0801134c        0xd ./rt-thread/src/kservice.o
 *fill*         0x08011359        0x3 00000000
 .rodata.__FUNCTION__.5473
                0x0801135c        0xb ./rt-thread/src/mem.o
 *fill*         0x08011367        0x1 00000000
 .rodata.__FUNCTION__.5498
                0x08011368        0xe ./rt-thread/src/mem.o
 *fill*         0x08011376        0x2 00000000
 .rodata.__FUNCTION__.5517
                0x08011378       0x10 ./rt-thread/src/mem.o
 .rodata.__FUNCTION__.5523
                0x08011388        0xd ./rt-thread/src/mem.o
 *fill*         0x08011395        0x3 00000000
 .rodata.__FUNCTION__.5538
                0x08011398        0xf ./rt-thread/src/object.o
 *fill*         0x080113a7        0x1 00000000
 .rodata.__FUNCTION__.5547
                0x080113a8       0x11 ./rt-thread/src/object.o
 *fill*         0x080113b9        0x3 00000000
 .rodata.__FUNCTION__.5556
                0x080113bc       0x13 ./rt-thread/src/object.o
 *fill*         0x080113cf        0x1 00000000
 .rodata.__FUNCTION__.5561
                0x080113d0       0x11 ./rt-thread/src/object.o
 *fill*         0x080113e1        0x3 00000000
 .rodata.__FUNCTION__.5565
                0x080113e4       0x1a ./rt-thread/src/object.o
 *fill*         0x080113fe        0x2 00000000
 .rodata.__FUNCTION__.5569
                0x08011400       0x13 ./rt-thread/src/object.o
 *fill*         0x08011413        0x1 00000000
 .rodata.__FUNCTION__.5578
                0x08011414        0xf ./rt-thread/src/object.o
 *fill*         0x08011423        0x1 00000000
 .rodata.__FUNCTION__.5480
                0x08011424       0x17 ./rt-thread/src/scheduler.o
 *fill*         0x0801143b        0x1 00000000
 .rodata.__FUNCTION__.5518
                0x0801143c       0x1a ./rt-thread/src/scheduler.o
 *fill*         0x08011456        0x2 00000000
 .rodata.__FUNCTION__.5524
                0x08011458       0x1a ./rt-thread/src/scheduler.o
 *fill*         0x08011472        0x2 00000000
 .rodata.__FUNCTION__.5485
                0x08011474       0x10 ./rt-thread/src/thread.o
 .rodata.__FUNCTION__.5497
                0x08011484        0xd ./rt-thread/src/thread.o
 *fill*         0x08011491        0x3 00000000
 .rodata.__FUNCTION__.5509
                0x08011494        0xf ./rt-thread/src/thread.o
 *fill*         0x080114a3        0x1 00000000
 .rodata.__FUNCTION__.5518
                0x080114a4       0x12 ./rt-thread/src/thread.o
 *fill*         0x080114b6        0x2 00000000
 .rodata.__FUNCTION__.5523
                0x080114b8       0x11 ./rt-thread/src/thread.o
 *fill*         0x080114c9        0x3 00000000
 .rodata.__FUNCTION__.5539
                0x080114cc       0x11 ./rt-thread/src/thread.o
 *fill*         0x080114dd        0x3 00000000
 .rodata.__FUNCTION__.5550
                0x080114e0       0x10 ./rt-thread/src/thread.o
 .rodata.__FUNCTION__.5573
                0x080114f0       0x12 ./rt-thread/src/thread.o
 *fill*         0x08011502        0x2 00000000
 .rodata.__FUNCTION__.5585
                0x08011504       0x12 ./rt-thread/src/thread.o
 *fill*         0x08011516        0x2 00000000
 .rodata.__FUNCTION__.5590
                0x08011518       0x11 ./rt-thread/src/thread.o
 *fill*         0x08011529        0x3 00000000
 .rodata.__FUNCTION__.5512
                0x0801152c        0xe ./rt-thread/src/timer.o
 *fill*         0x0801153a        0x2 00000000
 .rodata.__FUNCTION__.5517
                0x0801153c       0x10 ./rt-thread/src/timer.o
 .rodata.__FUNCTION__.5543
                0x0801154c        0xf ./rt-thread/src/timer.o
 *fill*         0x0801155b        0x1 00000000
 .rodata.__FUNCTION__.5560
                0x0801155c        0xe ./rt-thread/src/timer.o
 *fill*         0x0801156a        0x2 00000000
 .rodata.__FUNCTION__.5567
                0x0801156c       0x11 ./rt-thread/src/timer.o
 *fill*         0x0801157d        0x3 00000000
 .rodata.name   0x08011580      0x1b9 ./rt-thread/components/finsh/cmd.o
                0x08011580                __fsym_clear_name
                0x08011588                __fsym_clear_desc
                0x080115a4                __fsym_version_name
                0x080115ac                __fsym_version_desc
                0x080115d0                __fsym_list_thread_name
                0x080115dc                __fsym_list_thread_desc
                0x080115e8                __fsym_list_sem_name
                0x080115f4                __fsym_list_sem_desc
                0x08011610                __fsym_list_event_name
                0x0801161c                __fsym_list_event_desc
                0x08011634                __fsym_list_mutex_name
                0x08011640                __fsym_list_mutex_desc
                0x08011658                __fsym_list_mailbox_name
                0x08011668                __fsym_list_mailbox_desc
                0x08011680                __fsym_list_msgqueue_name
                0x08011690                __fsym_list_msgqueue_desc
                0x080116b0                __fsym_list_mempool_name
                0x080116c0                __fsym_list_mempool_desc
                0x080116dc                __fsym_list_timer_name
                0x080116e8                __fsym_list_timer_desc
                0x08011700                __fsym_list_device_name
                0x0801170c                __fsym_list_device_desc
                0x08011724                __fsym_list_name
                0x0801172c                __fsym_list_desc
 *fill*         0x08011739        0x3 00000000
 .rodata.device_type_str
                0x0801173c       0x78 ./rt-thread/components/finsh/cmd.o
 .rodata.name   0x080117b4       0x6d ./rt-thread/components/finsh/msh.o
                0x080117b4                __fsym_help_name
                0x080117bc                __fsym_help_desc
                0x080117d4                __fsym_ps_name
                0x080117d8                __fsym_ps_desc
                0x080117f4                __fsym_free_name
                0x080117fc                __fsym_free_desc
 *fill*         0x08011821        0x3 00000000
 .rodata.__FUNCTION__.7176
                0x08011824        0xe ./rt-thread/components/finsh/msh.o
 *fill*         0x08011832        0x2 00000000
 .rodata.name   0x08011834      0x1fc ./rt-thread/components/finsh/msh_file.o
                0x08011834                __fsym_ls_name
                0x08011838                __fsym_ls_desc
                0x0801185c                __fsym_cp_name
                0x08011860                __fsym_cp_desc
                0x08011878                __fsym_mv_name
                0x0801187c                __fsym_mv_desc
                0x08011894                __fsym_cat_name
                0x08011898                __fsym_cat_desc
                0x080118ac                __fsym_rm_name
                0x080118b0                __fsym_rm_desc
                0x080118cc                __fsym_cd_name
                0x080118d0                __fsym_cd_desc
                0x080118f4                __fsym_pwd_name
                0x080118f8                __fsym_pwd_desc
                0x0801192c                __fsym_mkdir_name
                0x08011934                __fsym_mkdir_desc
                0x0801194c                __fsym_mkfs_name
                0x08011954                __fsym_mkfs_desc
                0x08011974                __fsym_mount_name
                0x0801197c                __fsym_mount_desc
                0x080119a4                __fsym_umount_name
                0x080119ac                __fsym_umount_desc
                0x080119cc                __fsym_df_name
                0x080119d0                __fsym_df_desc
                0x080119dc                __fsym_echo_name
                0x080119e4                __fsym_echo_desc
                0x080119f8                __fsym_tail_name
                0x08011a00                __fsym_tail_desc
 .rodata.__FUNCTION__.6267
                0x08011a30       0x16 ./rt-thread/components/finsh/shell.o
 *fill*         0x08011a46        0x2 00000000
 .rodata.__FUNCTION__.6273
                0x08011a48        0xe ./rt-thread/components/finsh/shell.o
 *fill*         0x08011a56        0x2 00000000
 .rodata.__FUNCTION__.6281
                0x08011a58        0xd ./rt-thread/components/finsh/shell.o
 *fill*         0x08011a65        0x3 00000000
 .rodata.__FUNCTION__.6286
                0x08011a68       0x11 ./rt-thread/components/finsh/shell.o
 *fill*         0x08011a79        0x3 00000000
 .rodata.__FUNCTION__.5911
                0x08011a7c       0x1d ./rt-thread/components/drivers/serial/serial.o
 *fill*         0x08011a99        0x3 00000000
 .rodata.__FUNCTION__.5920
                0x08011a9c       0x1d ./rt-thread/components/drivers/serial/serial.o
 *fill*         0x08011ab9        0x3 00000000
 .rodata.__FUNCTION__.5926
                0x08011abc       0x1d ./rt-thread/components/drivers/serial/serial.o
 *fill*         0x08011ad9        0x3 00000000
 .rodata.__FUNCTION__.5952
                0x08011adc        0xf ./rt-thread/components/drivers/serial/serial.o
 *fill*         0x08011aeb        0x1 00000000
 .rodata.__FUNCTION__.5959
                0x08011aec        0xf ./rt-thread/components/drivers/serial/serial.o
 *fill*         0x08011afb        0x1 00000000
 .rodata.__FUNCTION__.5969
                0x08011afc       0x10 ./rt-thread/components/drivers/serial/serial.o
 .rodata.__FUNCTION__.5982
                0x08011b0c        0xf ./rt-thread/components/drivers/serial/serial.o
 *fill*         0x08011b1b        0x1 00000000
 .rodata.__FUNCTION__.5886
                0x08011b1c        0xf ./rt-thread/components/drivers/serial/serial.o
 *fill*         0x08011b2b        0x1 00000000
 .rodata.__FUNCTION__.5933
                0x08011b2c        0xf ./rt-thread/components/drivers/serial/serial.o
 *fill*         0x08011b3b        0x1 00000000
 .rodata.__FUNCTION__.5865
                0x08011b3c       0x10 ./rt-thread/components/drivers/serial/serial.o
 .rodata.__FUNCTION__.5990
                0x08011b4c       0x10 ./rt-thread/components/drivers/serial/serial.o
 .rodata.__FUNCTION__.5899
                0x08011b5c        0xf ./rt-thread/components/drivers/serial/serial.o
 *fill*         0x08011b6b        0x1 00000000
 .rodata.__FUNCTION__.5875
                0x08011b6c       0x10 ./rt-thread/components/drivers/serial/serial.o
 .rodata.__FUNCTION__.5998
                0x08011b7c       0x12 ./rt-thread/components/drivers/serial/serial.o
 *fill*         0x08011b8e        0x2 00000000
 .rodata.__FUNCTION__.6013
                0x08011b90       0x16 ./rt-thread/components/drivers/serial/serial.o
 *fill*         0x08011ba6        0x2 00000000
 .rodata.__FUNCTION__.6022
                0x08011ba8       0x11 ./rt-thread/components/drivers/serial/serial.o
 *fill*         0x08011bb9        0x3 00000000
 .rodata.name   0x08011bbc       0x11 ./rt-thread/components/drivers/misc/pin.o
                0x08011bbc                __fsym_pin_name
                0x08011bc0                __fsym_pin_desc
 *fill*         0x08011bcd        0x3 00000000
 .rodata.__FUNCTION__.5460
                0x08011bd0        0xa ./rt-thread/components/drivers/misc/pin.o
 *fill*         0x08011bda        0x2 00000000
 .rodata.__FUNCTION__.5469
                0x08011bdc        0xb ./rt-thread/components/drivers/misc/pin.o
 *fill*         0x08011be7        0x1 00000000
 .rodata.__FUNCTION__.5477
                0x08011be8        0xd ./rt-thread/components/drivers/misc/pin.o
 *fill*         0x08011bf5        0x3 00000000
 .rodata.__FUNCTION__.5504
                0x08011bf8        0xc ./rt-thread/components/drivers/misc/pin.o
 .rodata.__FUNCTION__.5509
                0x08011c04        0xd ./rt-thread/components/drivers/misc/pin.o
 *fill*         0x08011c11        0x3 00000000
 .rodata.__FUNCTION__.5513
                0x08011c14        0xc ./rt-thread/components/drivers/misc/pin.o
 .rodata.__FUNCTION__.5517
                0x08011c20        0xb ./rt-thread/components/drivers/misc/pin.o
 *fill*         0x08011c2b        0x1 00000000
 .rodata.__FUNCTION__.5862
                0x08011c2c       0x13 ./rt-thread/components/drivers/ipc/completion.o
 *fill*         0x08011c3f        0x1 00000000
 .rodata.__FUNCTION__.5870
                0x08011c40       0x13 ./rt-thread/components/drivers/ipc/completion.o
 *fill*         0x08011c53        0x1 00000000
 .rodata.__FUNCTION__.5879
                0x08011c54       0x13 ./rt-thread/components/drivers/ipc/completion.o
 *fill*         0x08011c67        0x1 00000000
 .rodata.__FUNCTION__.5868
                0x08011c68       0x13 ./rt-thread/components/drivers/ipc/dataqueue.o
 *fill*         0x08011c7b        0x1 00000000
 .rodata.__FUNCTION__.5878
                0x08011c7c       0x13 ./rt-thread/components/drivers/ipc/dataqueue.o
 *fill*         0x08011c8f        0x1 00000000
 .rodata.__FUNCTION__.5895
                0x08011c90       0x12 ./rt-thread/components/drivers/ipc/dataqueue.o
 *fill*         0x08011ca2        0x2 00000000
 .rodata.__FUNCTION__.5909
                0x08011ca4       0x13 ./rt-thread/components/drivers/ipc/dataqueue.o
 *fill*         0x08011cb7        0x1 00000000
 .rodata.__FUNCTION__.5915
                0x08011cb8       0x14 ./rt-thread/components/drivers/ipc/dataqueue.o
 .rodata.__FUNCTION__.5926
                0x08011ccc       0x15 ./rt-thread/components/drivers/ipc/dataqueue.o
 *fill*         0x08011ce1        0x3 00000000
 .rodata.__FUNCTION__.5932
                0x08011ce4       0x12 ./rt-thread/components/drivers/ipc/dataqueue.o
 *fill*         0x08011cf6        0x2 00000000
 .rodata.name   0x08011cf8       0x1d ./rt-thread/components/dfs/src/dfs.o
                0x08011cf8                __fsym_list_fd_name
                0x08011d00                __fsym_list_fd_desc
 *fill*         0x08011d15        0x3 00000000
 .rodata.__FUNCTION__.7011
                0x08011d18        0x9 ./rt-thread/components/dfs/src/dfs.o
 *fill*         0x08011d21        0x3 00000000
 .rodata.__FUNCTION__.7045
                0x08011d24        0x7 ./rt-thread/components/dfs/src/dfs.o
 *fill*         0x08011d2b        0x1 00000000
 .rodata.__FUNCTION__.7077
                0x08011d2c       0x13 ./rt-thread/components/dfs/src/dfs.o
 *fill*         0x08011d3f        0x1 00000000
 .rodata.__FUNCTION__.7010
                0x08011d40       0x16 ./rt-thread/components/dfs/src/dfs_fs.o
 *fill*         0x08011d56        0x2 00000000
 .rodata.name   0x08011d58       0x16 ./libraries/Drivers/drv_common.o
                0x08011d58                __fsym_reboot_name
                0x08011d60                __fsym_reboot_desc
 *fill*         0x08011d6e        0x2 00000000
 .rodata.pin_irq_map
                0x08011d70       0x40 ./libraries/Drivers/drv_gpio.o
 .rodata._apm32_pin_ops
                0x08011db0       0x1c ./libraries/Drivers/drv_gpio.o
 .rodata.apm32_usart_ops
                0x08011dcc       0x14 ./libraries/Drivers/drv_usart.o
 .rodata.__FUNCTION__.12747
                0x08011de0       0x10 ./libraries/Drivers/drv_usart.o
 .rodata.__FUNCTION__.12768
                0x08011df0        0xe ./libraries/Drivers/drv_usart.o
 *fill*         0x08011dfe        0x2 00000000
 .rodata.__FUNCTION__.12777
                0x08011e00        0xb ./libraries/Drivers/drv_usart.o
 *fill*         0x08011e0b        0x1 00000000
 .rodata.__FUNCTION__.12786
                0x08011e0c        0xb ./libraries/Drivers/drv_usart.o
 *fill*         0x08011e17        0x1 00000000
 .rodata.__FUNCTION__.12791
                0x08011e18        0xa ./libraries/Drivers/drv_usart.o
 *fill*         0x08011e22        0x2 00000000
 .rodata.__FUNCTION__.12803
                0x08011e24       0x11 ./libraries/Drivers/drv_usart.o
 *fill*         0x08011e35        0x3 00000000
 .rodata.str1.4
                0x08011e38       0x14 c:/rt-threadstudio/repo/extract/toolchain_support_packages/arm/gnu_tools_for_arm_embedded_processors/5.4.1/bin/../lib/gcc/arm-none-eabi/5.4.1/../../../../arm-none-eabi/lib/armv7e-m/fpu\libc.a(lib_a-locale.o)
                                 0x12 (size before relaxing)
 .rodata._ctype_
                0x08011e4c      0x101 c:/rt-threadstudio/repo/extract/toolchain_support_packages/arm/gnu_tools_for_arm_embedded_processors/5.4.1/bin/../lib/gcc/arm-none-eabi/5.4.1/../../../../arm-none-eabi/lib/armv7e-m/fpu\libc.a(lib_a-ctype_.o)
                0x08011e4c                _ctype_
 *(.glue_7)
 .glue_7        0x08011f4d        0x0 linker stubs
 *(.glue_7t)
 .glue_7t       0x08011f4d        0x0 linker stubs
 *(.gnu.linkonce.t*)
                0x08011f50                . = ALIGN (0x4)
 *fill*         0x08011f4d        0x3 00000000
                0x08011f50                __fsymtab_start = .
 *(FSymTab)
 FSymTab        0x08011f50       0x90 ./rt-thread/components/finsh/cmd.o
                0x08011f50                __fsym_clear
                0x08011f5c                __fsym_version
                0x08011f68                __fsym_list_thread
                0x08011f74                __fsym_list_sem
                0x08011f80                __fsym_list_event
                0x08011f8c                __fsym_list_mutex
                0x08011f98                __fsym_list_mailbox
                0x08011fa4                __fsym_list_msgqueue
                0x08011fb0                __fsym_list_mempool
                0x08011fbc                __fsym_list_timer
                0x08011fc8                __fsym_list_device
                0x08011fd4                __fsym_list
 FSymTab        0x08011fe0       0x24 ./rt-thread/components/finsh/msh.o
                0x08011fe0                __fsym_help
                0x08011fec                __fsym_ps
                0x08011ff8                __fsym_free
 FSymTab        0x08012004       0xa8 ./rt-thread/components/finsh/msh_file.o
                0x08012004                __fsym_ls
                0x08012010                __fsym_cp
                0x0801201c                __fsym_mv
                0x08012028                __fsym_cat
                0x08012034                __fsym_rm
                0x08012040                __fsym_cd
                0x0801204c                __fsym_pwd
                0x08012058                __fsym_mkdir
                0x08012064                __fsym_mkfs
                0x08012070                __fsym_mount
                0x0801207c                __fsym_umount
                0x08012088                __fsym_df
                0x08012094                __fsym_echo
                0x080120a0                __fsym_tail
 FSymTab        0x080120ac        0xc ./rt-thread/components/drivers/misc/pin.o
                0x080120ac                __fsym_pin
 FSymTab        0x080120b8        0xc ./rt-thread/components/dfs/src/dfs.o
                0x080120b8                __fsym_list_fd
 FSymTab        0x080120c4        0xc ./libraries/Drivers/drv_common.o
                0x080120c4                __fsym_reboot
                0x080120d0                __fsymtab_end = .
                0x080120d0                . = ALIGN (0x4)
                0x080120d0                __vsymtab_start = .
 *(VSymTab)
                0x080120d0                __vsymtab_end = .
                0x080120d0                . = ALIGN (0x4)
                0x080120d0                . = ALIGN (0x4)
                0x080120d0                __rt_init_start = .
 *(SORT(.rti_fn*))
 .rti_fn.0      0x080120d0        0x4 ./rt-thread/src/components.o
                0x080120d0                __rt_init_rti_start
 .rti_fn.0.end  0x080120d4        0x4 ./rt-thread/src/components.o
                0x080120d4                __rt_init_rti_board_start
 .rti_fn.1.end  0x080120d8        0x4 ./rt-thread/src/components.o
                0x080120d8                __rt_init_rti_board_end
 .rti_fn.2      0x080120dc        0x4 ./rt-thread/components/dfs/src/dfs.o
                0x080120dc                __rt_init_dfs_init
 .rti_fn.6      0x080120e0        0x4 ./rt-thread/components/finsh/shell.o
                0x080120e0                __rt_init_finsh_system_init
 .rti_fn.6.end  0x080120e4        0x4 ./rt-thread/src/components.o
                0x080120e4                __rt_init_rti_end
                0x080120e8                __rt_init_end = .
                0x080120e8                . = ALIGN (0x4)
                0x080120e8                . = ALIGN (0x4)
                0x080120e8                _etext = .
                0x080120e8                __exidx_start = .

.vfp11_veneer   0x080120e8        0x0
 .vfp11_veneer  0x080120e8        0x0 linker stubs

.v4_bx          0x080120e8        0x0
 .v4_bx         0x080120e8        0x0 linker stubs

.init           0x080120e8        0x4
 .init          0x080120e8        0x4 c:/rt-threadstudio/repo/extract/toolchain_support_packages/arm/gnu_tools_for_arm_embedded_processors/5.4.1/bin/../lib/gcc/arm-none-eabi/5.4.1/armv7e-m/fpu/crti.o
                0x080120e8                _init

.fini           0x080120ec        0x4
 .fini          0x080120ec        0x4 c:/rt-threadstudio/repo/extract/toolchain_support_packages/arm/gnu_tools_for_arm_embedded_processors/5.4.1/bin/../lib/gcc/arm-none-eabi/5.4.1/armv7e-m/fpu/crti.o
                0x080120ec                _fini

.iplt           0x080120f0        0x0
 .iplt          0x080120f0        0x0 c:/rt-threadstudio/repo/extract/toolchain_support_packages/arm/gnu_tools_for_arm_embedded_processors/5.4.1/bin/../lib/gcc/arm-none-eabi/5.4.1/armv7e-m/fpu/crtbegin.o

.rel.dyn        0x080120f0        0x0
 .rel.iplt      0x080120f0        0x0 c:/rt-threadstudio/repo/extract/toolchain_support_packages/arm/gnu_tools_for_arm_embedded_processors/5.4.1/bin/../lib/gcc/arm-none-eabi/5.4.1/armv7e-m/fpu/crtbegin.o

.ARM.exidx      0x080120f0        0x0
 *(.ARM.exidx* .gnu.linkonce.armexidx.*)
                0x080120f0                _sidata = .
                0x080120f0                __exidx_end = .

.data           0x20000000      0x898 load address 0x080120f0
                0x20000000                . = ALIGN (0x4)
                0x20000000                _sdata = .
 *(.data)
 *(.data.*)
 .data._rt_thread_defunct
                0x20000000        0x8 ./rt-thread/src/idle.o
 .data.rt_errno_strs
                0x20000008       0x30 ./rt-thread/src/kservice.o
 .data._object_container
                0x20000038       0xa0 ./rt-thread/src/object.o
 .data._soft_timer_status
                0x200000d8        0x1 ./rt-thread/src/timer.o
 *fill*         0x200000d9        0x3 
 .data.working_directory
                0x200000dc      0x100 ./rt-thread/components/dfs/src/dfs.o
                0x200000dc                working_directory
 .data.pin_irq_hdr_tab
                0x200001dc       0xc0 ./libraries/Drivers/drv_gpio.o
 .data.usart_config
                0x2000029c       0x60 ./libraries/Drivers/drv_usart.o
 *fill*         0x200002fc        0x4 
 .data.impure_data
                0x20000300      0x428 c:/rt-threadstudio/repo/extract/toolchain_support_packages/arm/gnu_tools_for_arm_embedded_processors/5.4.1/bin/../lib/gcc/arm-none-eabi/5.4.1/../../../../arm-none-eabi/lib/armv7e-m/fpu\libc.a(lib_a-impure.o)
 .data._impure_ptr
                0x20000728        0x4 c:/rt-threadstudio/repo/extract/toolchain_support_packages/arm/gnu_tools_for_arm_embedded_processors/5.4.1/bin/../lib/gcc/arm-none-eabi/5.4.1/../../../../arm-none-eabi/lib/armv7e-m/fpu\libc.a(lib_a-impure.o)
                0x20000728                _impure_ptr
 .data.__global_locale
                0x2000072c      0x16c c:/rt-threadstudio/repo/extract/toolchain_support_packages/arm/gnu_tools_for_arm_embedded_processors/5.4.1/bin/../lib/gcc/arm-none-eabi/5.4.1/../../../../arm-none-eabi/lib/armv7e-m/fpu\libc.a(lib_a-locale.o)
                0x2000072c                __global_locale
 *(.gnu.linkonce.d*)
                0x20000898                . = ALIGN (0x4)
                0x20000898                _edata = .

.igot.plt       0x20000898        0x0 load address 0x08012988
 .igot.plt      0x20000898        0x0 c:/rt-threadstudio/repo/extract/toolchain_support_packages/arm/gnu_tools_for_arm_embedded_processors/5.4.1/bin/../lib/gcc/arm-none-eabi/5.4.1/armv7e-m/fpu/crtbegin.o

.stack          0x20000898      0x200 load address 0x08012988
                0x20000a98                . = (. + _system_stack_size)
 *fill*         0x20000898      0x200 
                0x20000a98                . = ALIGN (0x4)
                0x20000a98                _estack = .
                0x20000a98                __bss_start = .

.bss            0x20000a98      0x8cc load address 0x08012b88
                0x20000a98                . = ALIGN (0x4)
                0x20000a98                _sbss = .
 *(.bss)
 *(.bss.*)
 .bss.rt_tick   0x20000a98        0x4 ./rt-thread/src/clock.o
 .bss.rt_tick_hook
                0x20000a9c        0x4 ./rt-thread/src/clock.o
 .bss.idle      0x20000aa0       0x80 ./rt-thread/src/idle.o
 .bss.rt_thread_stack
                0x20000b20      0x100 ./rt-thread/src/idle.o
 .bss.idle_hook_list
                0x20000c20       0x10 ./rt-thread/src/idle.o
 .bss.rt_interrupt_enter_hook
                0x20000c30        0x4 ./rt-thread/src/irq.o
 .bss.rt_interrupt_leave_hook
                0x20000c34        0x4 ./rt-thread/src/irq.o
 .bss.rt_interrupt_nest
                0x20000c38        0x1 ./rt-thread/src/irq.o
                0x20000c38                rt_interrupt_nest
 *fill*         0x20000c39        0x3 
 .bss.__rt_errno
                0x20000c3c        0x4 ./rt-thread/src/kservice.o
 .bss._console_device
                0x20000c40        0x4 ./rt-thread/src/kservice.o
 .bss.rt_malloc_hook
                0x20000c44        0x4 ./rt-thread/src/kservice.o
 .bss.rt_free_hook
                0x20000c48        0x4 ./rt-thread/src/kservice.o
 .bss._lock     0x20000c4c       0x24 ./rt-thread/src/kservice.o
 .bss.system_heap
                0x20000c70        0x4 ./rt-thread/src/kservice.o
 .bss.rt_log_buf.5698
                0x20000c74       0x80 ./rt-thread/src/kservice.o
 .bss.rt_object_attach_hook
                0x20000cf4        0x4 ./rt-thread/src/object.o
 .bss.rt_object_detach_hook
                0x20000cf8        0x4 ./rt-thread/src/object.o
 .bss.rt_scheduler_lock_nest
                0x20000cfc        0x2 ./rt-thread/src/scheduler.o
 *fill*         0x20000cfe        0x2 
 .bss.rt_current_thread
                0x20000d00        0x4 ./rt-thread/src/scheduler.o
                0x20000d00                rt_current_thread
 .bss.rt_scheduler_hook
                0x20000d04        0x4 ./rt-thread/src/scheduler.o
 .bss.rt_scheduler_switch_hook
                0x20000d08        0x4 ./rt-thread/src/scheduler.o
 .bss.rt_thread_suspend_hook
                0x20000d0c        0x4 ./rt-thread/src/thread.o
 .bss.rt_thread_resume_hook
                0x20000d10        0x4 ./rt-thread/src/thread.o
 .bss.rt_thread_inited_hook
                0x20000d14        0x4 ./rt-thread/src/thread.o
 .bss._timer_list
                0x20000d18        0x8 ./rt-thread/src/timer.o
 .bss._soft_timer_list
                0x20000d20        0x8 ./rt-thread/src/timer.o
 .bss._timer_thread
                0x20000d28       0x80 ./rt-thread/src/timer.o
 .bss._timer_thread_stack
                0x20000da8      0x200 ./rt-thread/src/timer.o
 .bss.rt_timer_enter_hook
                0x20000fa8        0x4 ./rt-thread/src/timer.o
 .bss.rt_timer_exit_hook
                0x20000fac        0x4 ./rt-thread/src/timer.o
 .bss.random_nr.5542
                0x20000fb0        0x4 ./rt-thread/src/timer.o
 .bss.rt_exception_hook
                0x20000fb4        0x4 ./rt-thread/libcpu/arm/cortex-m4/cpuport.o
 .bss._syscall_table_begin
                0x20000fb8        0x4 ./rt-thread/components/finsh/shell.o
                0x20000fb8                _syscall_table_begin
 .bss._syscall_table_end
                0x20000fbc        0x4 ./rt-thread/components/finsh/shell.o
                0x20000fbc                _syscall_table_end
 .bss.finsh_prompt_custom
                0x20000fc0        0x4 ./rt-thread/components/finsh/shell.o
 .bss.finsh_prompt.6259
                0x20000fc4       0x81 ./rt-thread/components/finsh/shell.o
 *fill*         0x20001045        0x3 
 .bss.already_output.5906
                0x20001048        0x4 ./rt-thread/components/drivers/serial/serial.o
 .bss._hw_pin   0x2000104c       0x44 ./rt-thread/components/drivers/misc/pin.o
 .bss.fslock    0x20001090       0x24 ./rt-thread/components/dfs/src/dfs.o
 .bss._fdtab    0x200010b4        0x8 ./rt-thread/components/dfs/src/dfs.o
 .bss.init_ok.7002
                0x200010bc        0x4 ./rt-thread/components/dfs/src/dfs.o
 .bss.fd        0x200010c0       0x24 ./rt-thread/components/dfs/src/dfs_file.o
 .bss.dirent    0x200010e4      0x104 ./rt-thread/components/dfs/src/dfs_file.o
 .bss.pin_irq_enable_mask
                0x200011e8        0x4 ./libraries/Drivers/drv_gpio.o
 *(COMMON)
 COMMON         0x200011ec        0x4 ./rt-thread/src/kservice.o
                0x200011ec                rt_assert_hook
 COMMON         0x200011f0        0xc ./rt-thread/src/object.o
                0x200011f0                rt_object_put_hook
                0x200011f4                rt_object_take_hook
                0x200011f8                rt_object_trytake_hook
 COMMON         0x200011fc      0x108 ./rt-thread/src/scheduler.o
                0x200011fc                rt_thread_priority_table
                0x200012fc                rt_current_priority
                0x20001300                rt_thread_ready_priority_group
 COMMON         0x20001304        0xc ./rt-thread/libcpu/arm/cortex-m4/cpuport.o
                0x20001304                rt_interrupt_to_thread
                0x20001308                rt_interrupt_from_thread
                0x2000130c                rt_thread_switch_interrupt_flag
 COMMON         0x20001310        0x4 ./rt-thread/components/finsh/shell.o
                0x20001310                shell
 COMMON         0x20001314       0x50 ./rt-thread/components/dfs/src/dfs.o
                0x20001314                filesystem_table
                0x20001354                filesystem_operation_table
                0x20001364                . = ALIGN (0x4)
                0x20001364                _ebss = .
 *(.bss.init)
                0x20001364                __bss_end = .
                0x20001364                _end = .

.stab
 *(.stab)

.stabstr
 *(.stabstr)

.stab.excl
 *(.stab.excl)

.stab.exclstr
 *(.stab.exclstr)

.stab.index
 *(.stab.index)

.stab.indexstr
 *(.stab.indexstr)

.comment        0x00000000       0x6e
 *(.comment)
 .comment       0x00000000       0x6e ./rt-thread/src/clock.o
                                 0x6f (size before relaxing)
 .comment       0x0000006e       0x6f ./rt-thread/src/components.o
 .comment       0x0000006e       0x6f ./rt-thread/src/device.o
 .comment       0x0000006e       0x6f ./rt-thread/src/idle.o
 .comment       0x0000006e       0x6f ./rt-thread/src/ipc.o
 .comment       0x0000006e       0x6f ./rt-thread/src/irq.o
 .comment       0x0000006e       0x6f ./rt-thread/src/kservice.o
 .comment       0x0000006e       0x6f ./rt-thread/src/mem.o
 .comment       0x0000006e       0x6f ./rt-thread/src/object.o
 .comment       0x0000006e       0x6f ./rt-thread/src/scheduler.o
 .comment       0x0000006e       0x6f ./rt-thread/src/thread.o
 .comment       0x0000006e       0x6f ./rt-thread/src/timer.o
 .comment       0x0000006e       0x6f ./rt-thread/libcpu/arm/cortex-m4/cpuport.o
 .comment       0x0000006e       0x6f ./rt-thread/components/finsh/cmd.o
 .comment       0x0000006e       0x6f ./rt-thread/components/finsh/msh.o
 .comment       0x0000006e       0x6f ./rt-thread/components/finsh/msh_file.o
 .comment       0x0000006e       0x6f ./rt-thread/components/finsh/msh_parse.o
 .comment       0x0000006e       0x6f ./rt-thread/components/finsh/shell.o
 .comment       0x0000006e       0x6f ./rt-thread/components/drivers/serial/serial.o
 .comment       0x0000006e       0x6f ./rt-thread/components/drivers/misc/pin.o
 .comment       0x0000006e       0x6f ./rt-thread/components/drivers/ipc/completion.o
 .comment       0x0000006e       0x6f ./rt-thread/components/drivers/ipc/dataqueue.o
 .comment       0x0000006e       0x6f ./rt-thread/components/dfs/src/dfs.o
 .comment       0x0000006e       0x6f ./rt-thread/components/dfs/src/dfs_file.o
 .comment       0x0000006e       0x6f ./rt-thread/components/dfs/src/dfs_fs.o
 .comment       0x0000006e       0x6f ./rt-thread/components/dfs/src/dfs_posix.o
 .comment       0x0000006e       0x6f ./libraries/Drivers/drv_common.o
 .comment       0x0000006e       0x6f ./libraries/Drivers/drv_gpio.o
 .comment       0x0000006e       0x6f ./libraries/Drivers/drv_usart.o
 .comment       0x0000006e       0x6f ./libraries/APM32F4xx_Library/Device/Geehy/APM32F4xx/Source/system_apm32f4xx.o
 .comment       0x0000006e       0x6f ./libraries/APM32F4xx_Library/APM32F4xx_StdPeriphDriver/src/apm32f4xx_eint.o
 .comment       0x0000006e       0x6f ./libraries/APM32F4xx_Library/APM32F4xx_StdPeriphDriver/src/apm32f4xx_gpio.o
 .comment       0x0000006e       0x6f ./libraries/APM32F4xx_Library/APM32F4xx_StdPeriphDriver/src/apm32f4xx_misc.o
 .comment       0x0000006e       0x6f ./libraries/APM32F4xx_Library/APM32F4xx_StdPeriphDriver/src/apm32f4xx_rcm.o
 .comment       0x0000006e       0x6f ./libraries/APM32F4xx_Library/APM32F4xx_StdPeriphDriver/src/apm32f4xx_usart.o
 .comment       0x0000006e       0x6f ./board/board.o
 .comment       0x0000006e       0x6f ./applications/main.o

.ARM.attributes
                0x00000000       0x30
 .ARM.attributes
                0x00000000       0x22 c:/rt-threadstudio/repo/extract/toolchain_support_packages/arm/gnu_tools_for_arm_embedded_processors/5.4.1/bin/../lib/gcc/arm-none-eabi/5.4.1/armv7e-m/fpu/crti.o
 .ARM.attributes
                0x00000022       0x39 ./rt-thread/src/clock.o
 .ARM.attributes
                0x0000005b       0x39 ./rt-thread/src/components.o
 .ARM.attributes
                0x00000094       0x39 ./rt-thread/src/device.o
 .ARM.attributes
                0x000000cd       0x39 ./rt-thread/src/idle.o
 .ARM.attributes
                0x00000106       0x39 ./rt-thread/src/ipc.o
 .ARM.attributes
                0x0000013f       0x39 ./rt-thread/src/irq.o
 .ARM.attributes
                0x00000178       0x39 ./rt-thread/src/kservice.o
 .ARM.attributes
                0x000001b1       0x39 ./rt-thread/src/mem.o
 .ARM.attributes
                0x000001ea       0x39 ./rt-thread/src/object.o
 .ARM.attributes
                0x00000223       0x39 ./rt-thread/src/scheduler.o
 .ARM.attributes
                0x0000025c       0x39 ./rt-thread/src/thread.o
 .ARM.attributes
                0x00000295       0x39 ./rt-thread/src/timer.o
 .ARM.attributes
                0x000002ce       0x25 ./rt-thread/libcpu/arm/cortex-m4/context_gcc.o
 .ARM.attributes
                0x000002f3       0x39 ./rt-thread/libcpu/arm/cortex-m4/cpuport.o
 .ARM.attributes
                0x0000032c       0x39 ./rt-thread/components/finsh/cmd.o
 .ARM.attributes
                0x00000365       0x39 ./rt-thread/components/finsh/msh.o
 .ARM.attributes
                0x0000039e       0x39 ./rt-thread/components/finsh/msh_file.o
 .ARM.attributes
                0x000003d7       0x39 ./rt-thread/components/finsh/msh_parse.o
 .ARM.attributes
                0x00000410       0x39 ./rt-thread/components/finsh/shell.o
 .ARM.attributes
                0x00000449       0x39 ./rt-thread/components/drivers/serial/serial.o
 .ARM.attributes
                0x00000482       0x39 ./rt-thread/components/drivers/misc/pin.o
 .ARM.attributes
                0x000004bb       0x39 ./rt-thread/components/drivers/ipc/completion.o
 .ARM.attributes
                0x000004f4       0x39 ./rt-thread/components/drivers/ipc/dataqueue.o
 .ARM.attributes
                0x0000052d       0x39 ./rt-thread/components/dfs/src/dfs.o
 .ARM.attributes
                0x00000566       0x39 ./rt-thread/components/dfs/src/dfs_file.o
 .ARM.attributes
                0x0000059f       0x39 ./rt-thread/components/dfs/src/dfs_fs.o
 .ARM.attributes
                0x000005d8       0x39 ./rt-thread/components/dfs/src/dfs_posix.o
 .ARM.attributes
                0x00000611       0x39 ./libraries/Drivers/drv_common.o
 .ARM.attributes
                0x0000064a       0x39 ./libraries/Drivers/drv_gpio.o
 .ARM.attributes
                0x00000683       0x39 ./libraries/Drivers/drv_usart.o
 .ARM.attributes
                0x000006bc       0x21 ./libraries/APM32F4xx_Library/Device/Geehy/APM32F4xx/Source/gcc/startup_apm32f40x.o
 .ARM.attributes
                0x000006dd       0x39 ./libraries/APM32F4xx_Library/Device/Geehy/APM32F4xx/Source/system_apm32f4xx.o
 .ARM.attributes
                0x00000716       0x39 ./libraries/APM32F4xx_Library/APM32F4xx_StdPeriphDriver/src/apm32f4xx_eint.o
 .ARM.attributes
                0x0000074f       0x39 ./libraries/APM32F4xx_Library/APM32F4xx_StdPeriphDriver/src/apm32f4xx_gpio.o
 .ARM.attributes
                0x00000788       0x39 ./libraries/APM32F4xx_Library/APM32F4xx_StdPeriphDriver/src/apm32f4xx_misc.o
 .ARM.attributes
                0x000007c1       0x39 ./libraries/APM32F4xx_Library/APM32F4xx_StdPeriphDriver/src/apm32f4xx_rcm.o
 .ARM.attributes
                0x000007fa       0x39 ./libraries/APM32F4xx_Library/APM32F4xx_StdPeriphDriver/src/apm32f4xx_usart.o
 .ARM.attributes
                0x00000833       0x39 ./board/board.o
 .ARM.attributes
                0x0000086c       0x39 ./applications/main.o
 .ARM.attributes
                0x000008a5       0x34 c:/rt-threadstudio/repo/extract/toolchain_support_packages/arm/gnu_tools_for_arm_embedded_processors/5.4.1/bin/../lib/gcc/arm-none-eabi/5.4.1/../../../../arm-none-eabi/lib/armv7e-m/fpu\libc.a(lib_a-atoi.o)
 .ARM.attributes
                0x000008d9       0x34 c:/rt-threadstudio/repo/extract/toolchain_support_packages/arm/gnu_tools_for_arm_embedded_processors/5.4.1/bin/../lib/gcc/arm-none-eabi/5.4.1/../../../../arm-none-eabi/lib/armv7e-m/fpu\libc.a(lib_a-impure.o)
 .ARM.attributes
                0x0000090d       0x34 c:/rt-threadstudio/repo/extract/toolchain_support_packages/arm/gnu_tools_for_arm_embedded_processors/5.4.1/bin/../lib/gcc/arm-none-eabi/5.4.1/../../../../arm-none-eabi/lib/armv7e-m/fpu\libc.a(lib_a-locale.o)
 .ARM.attributes
                0x00000941       0x34 c:/rt-threadstudio/repo/extract/toolchain_support_packages/arm/gnu_tools_for_arm_embedded_processors/5.4.1/bin/../lib/gcc/arm-none-eabi/5.4.1/../../../../arm-none-eabi/lib/armv7e-m/fpu\libc.a(lib_a-mbtowc_r.o)
 .ARM.attributes
                0x00000975       0x34 c:/rt-threadstudio/repo/extract/toolchain_support_packages/arm/gnu_tools_for_arm_embedded_processors/5.4.1/bin/../lib/gcc/arm-none-eabi/5.4.1/../../../../arm-none-eabi/lib/armv7e-m/fpu\libc.a(lib_a-memcmp.o)
 .ARM.attributes
                0x000009a9       0x34 c:/rt-threadstudio/repo/extract/toolchain_support_packages/arm/gnu_tools_for_arm_embedded_processors/5.4.1/bin/../lib/gcc/arm-none-eabi/5.4.1/../../../../arm-none-eabi/lib/armv7e-m/fpu\libc.a(lib_a-strchr.o)
 .ARM.attributes
                0x000009dd       0x20 c:/rt-threadstudio/repo/extract/toolchain_support_packages/arm/gnu_tools_for_arm_embedded_processors/5.4.1/bin/../lib/gcc/arm-none-eabi/5.4.1/../../../../arm-none-eabi/lib/armv7e-m/fpu\libc.a(lib_a-strcmp.o)
 .ARM.attributes
                0x000009fd       0x34 c:/rt-threadstudio/repo/extract/toolchain_support_packages/arm/gnu_tools_for_arm_embedded_processors/5.4.1/bin/../lib/gcc/arm-none-eabi/5.4.1/../../../../arm-none-eabi/lib/armv7e-m/fpu\libc.a(lib_a-strcpy.o)
 .ARM.attributes
                0x00000a31       0x20 c:/rt-threadstudio/repo/extract/toolchain_support_packages/arm/gnu_tools_for_arm_embedded_processors/5.4.1/bin/../lib/gcc/arm-none-eabi/5.4.1/../../../../arm-none-eabi/lib/armv7e-m/fpu\libc.a(lib_a-strlen.o)
 .ARM.attributes
                0x00000a51       0x34 c:/rt-threadstudio/repo/extract/toolchain_support_packages/arm/gnu_tools_for_arm_embedded_processors/5.4.1/bin/../lib/gcc/arm-none-eabi/5.4.1/../../../../arm-none-eabi/lib/armv7e-m/fpu\libc.a(lib_a-strncat.o)
 .ARM.attributes
                0x00000a85       0x34 c:/rt-threadstudio/repo/extract/toolchain_support_packages/arm/gnu_tools_for_arm_embedded_processors/5.4.1/bin/../lib/gcc/arm-none-eabi/5.4.1/../../../../arm-none-eabi/lib/armv7e-m/fpu\libc.a(lib_a-strncmp.o)
 .ARM.attributes
                0x00000ab9       0x34 c:/rt-threadstudio/repo/extract/toolchain_support_packages/arm/gnu_tools_for_arm_embedded_processors/5.4.1/bin/../lib/gcc/arm-none-eabi/5.4.1/../../../../arm-none-eabi/lib/armv7e-m/fpu\libc.a(lib_a-strncpy.o)
 .ARM.attributes
                0x00000aed       0x34 c:/rt-threadstudio/repo/extract/toolchain_support_packages/arm/gnu_tools_for_arm_embedded_processors/5.4.1/bin/../lib/gcc/arm-none-eabi/5.4.1/../../../../arm-none-eabi/lib/armv7e-m/fpu\libc.a(lib_a-strrchr.o)
 .ARM.attributes
                0x00000b21       0x34 c:/rt-threadstudio/repo/extract/toolchain_support_packages/arm/gnu_tools_for_arm_embedded_processors/5.4.1/bin/../lib/gcc/arm-none-eabi/5.4.1/../../../../arm-none-eabi/lib/armv7e-m/fpu\libc.a(lib_a-strstr.o)
 .ARM.attributes
                0x00000b55       0x34 c:/rt-threadstudio/repo/extract/toolchain_support_packages/arm/gnu_tools_for_arm_embedded_processors/5.4.1/bin/../lib/gcc/arm-none-eabi/5.4.1/../../../../arm-none-eabi/lib/armv7e-m/fpu\libc.a(lib_a-strtol.o)
 .ARM.attributes
                0x00000b89       0x34 c:/rt-threadstudio/repo/extract/toolchain_support_packages/arm/gnu_tools_for_arm_embedded_processors/5.4.1/bin/../lib/gcc/arm-none-eabi/5.4.1/../../../../arm-none-eabi/lib/armv7e-m/fpu\libc.a(lib_a-wctomb_r.o)
 .ARM.attributes
                0x00000bbd       0x34 c:/rt-threadstudio/repo/extract/toolchain_support_packages/arm/gnu_tools_for_arm_embedded_processors/5.4.1/bin/../lib/gcc/arm-none-eabi/5.4.1/../../../../arm-none-eabi/lib/armv7e-m/fpu\libc.a(lib_a-ctype_.o)
 .ARM.attributes
                0x00000bf1       0x20 c:/rt-threadstudio/repo/extract/toolchain_support_packages/arm/gnu_tools_for_arm_embedded_processors/5.4.1/bin/../lib/gcc/arm-none-eabi/5.4.1/../../../../arm-none-eabi/lib/armv7e-m/fpu\libc.a(lib_a-memchr.o)

.debug
 *(.debug)

.line
 *(.line)

.debug_srcinfo
 *(.debug_srcinfo)

.debug_sfnames
 *(.debug_sfnames)

.debug_aranges  0x00000000     0x15e8
 *(.debug_aranges)
 .debug_aranges
                0x00000000       0x48 ./rt-thread/src/clock.o
 .debug_aranges
                0x00000048       0x68 ./rt-thread/src/components.o
 .debug_aranges
                0x000000b0       0x80 ./rt-thread/src/device.o
 .debug_aranges
                0x00000130       0x68 ./rt-thread/src/idle.o
 .debug_aranges
                0x00000198      0x198 ./rt-thread/src/ipc.o
 .debug_aranges
                0x00000330       0x40 ./rt-thread/src/irq.o
 .debug_aranges
                0x00000370      0x158 ./rt-thread/src/kservice.o
 .debug_aranges
                0x000004c8       0x48 ./rt-thread/src/mem.o
 .debug_aranges
                0x00000510       0xa0 ./rt-thread/src/object.o
 .debug_aranges
                0x000005b0       0x98 ./rt-thread/src/scheduler.o
 .debug_aranges
                0x00000648       0xd0 ./rt-thread/src/thread.o
 .debug_aranges
                0x00000718       0xc8 ./rt-thread/src/timer.o
 .debug_aranges
                0x000007e0       0x20 ./rt-thread/libcpu/arm/cortex-m4/context_gcc.o
 .debug_aranges
                0x00000800       0x68 ./rt-thread/libcpu/arm/cortex-m4/cpuport.o
 .debug_aranges
                0x00000868       0xa8 ./rt-thread/components/finsh/cmd.o
 .debug_aranges
                0x00000910       0x68 ./rt-thread/components/finsh/msh.o
 .debug_aranges
                0x00000978       0xa0 ./rt-thread/components/finsh/msh_file.o
 .debug_aranges
                0x00000a18       0x30 ./rt-thread/components/finsh/msh_parse.o
 .debug_aranges
                0x00000a48       0x98 ./rt-thread/components/finsh/shell.o
 .debug_aranges
                0x00000ae0       0xb0 ./rt-thread/components/drivers/serial/serial.o
 .debug_aranges
                0x00000b90       0xa8 ./rt-thread/components/drivers/misc/pin.o
 .debug_aranges
                0x00000c38       0x48 ./rt-thread/components/drivers/ipc/completion.o
 .debug_aranges
                0x00000c80       0x68 ./rt-thread/components/drivers/ipc/dataqueue.o
 .debug_aranges
                0x00000ce8       0x78 ./rt-thread/components/dfs/src/dfs.o
 .debug_aranges
                0x00000d60       0xb0 ./rt-thread/components/dfs/src/dfs_file.o
 .debug_aranges
                0x00000e10       0x68 ./rt-thread/components/dfs/src/dfs_fs.o
 .debug_aranges
                0x00000e78       0xe8 ./rt-thread/components/dfs/src/dfs_posix.o
 .debug_aranges
                0x00000f60       0x50 ./libraries/Drivers/drv_common.o
 .debug_aranges
                0x00000fb0       0xb0 ./libraries/Drivers/drv_gpio.o
 .debug_aranges
                0x00001060       0x50 ./libraries/Drivers/drv_usart.o
 .debug_aranges
                0x000010b0       0x28 ./libraries/APM32F4xx_Library/Device/Geehy/APM32F4xx/Source/gcc/startup_apm32f40x.o
 .debug_aranges
                0x000010d8       0x30 ./libraries/APM32F4xx_Library/Device/Geehy/APM32F4xx/Source/system_apm32f4xx.o
 .debug_aranges
                0x00001108       0x58 ./libraries/APM32F4xx_Library/APM32F4xx_StdPeriphDriver/src/apm32f4xx_eint.o
 .debug_aranges
                0x00001160       0x88 ./libraries/APM32F4xx_Library/APM32F4xx_StdPeriphDriver/src/apm32f4xx_gpio.o
 .debug_aranges
                0x000011e8       0x50 ./libraries/APM32F4xx_Library/APM32F4xx_StdPeriphDriver/src/apm32f4xx_misc.o
 .debug_aranges
                0x00001238      0x218 ./libraries/APM32F4xx_Library/APM32F4xx_StdPeriphDriver/src/apm32f4xx_rcm.o
 .debug_aranges
                0x00001450      0x158 ./libraries/APM32F4xx_Library/APM32F4xx_StdPeriphDriver/src/apm32f4xx_usart.o
 .debug_aranges
                0x000015a8       0x20 ./board/board.o
 .debug_aranges
                0x000015c8       0x20 ./applications/main.o

.debug_pubnames
 *(.debug_pubnames)

.debug_info     0x00000000    0x22d38
 *(.debug_info .gnu.linkonce.wi.*)
 .debug_info    0x00000000      0x4cc ./rt-thread/src/clock.o
 .debug_info    0x000004cc      0x566 ./rt-thread/src/components.o
 .debug_info    0x00000a32      0x93c ./rt-thread/src/device.o
 .debug_info    0x0000136e      0x6ae ./rt-thread/src/idle.o
 .debug_info    0x00001a1c     0x1d64 ./rt-thread/src/ipc.o
 .debug_info    0x00003780      0x1d1 ./rt-thread/src/irq.o
 .debug_info    0x00003951     0x15e6 ./rt-thread/src/kservice.o
 .debug_info    0x00004f37      0x665 ./rt-thread/src/mem.o
 .debug_info    0x0000559c      0x8ba ./rt-thread/src/object.o
 .debug_info    0x00005e56      0x860 ./rt-thread/src/scheduler.o
 .debug_info    0x000066b6      0xc5b ./rt-thread/src/thread.o
 .debug_info    0x00007311      0xc01 ./rt-thread/src/timer.o
 .debug_info    0x00007f12       0x7f ./rt-thread/libcpu/arm/cortex-m4/context_gcc.o
 .debug_info    0x00007f91      0x481 ./rt-thread/libcpu/arm/cortex-m4/cpuport.o
 .debug_info    0x00008412     0x1859 ./rt-thread/components/finsh/cmd.o
 .debug_info    0x00009c6b      0x803 ./rt-thread/components/finsh/msh.o
 .debug_info    0x0000a46e     0x17b7 ./rt-thread/components/finsh/msh_file.o
 .debug_info    0x0000bc25      0x16f ./rt-thread/components/finsh/msh_parse.o
 .debug_info    0x0000bd94      0xd6d ./rt-thread/components/finsh/shell.o
 .debug_info    0x0000cb01     0x12f3 ./rt-thread/components/drivers/serial/serial.o
 .debug_info    0x0000ddf4      0xd70 ./rt-thread/components/drivers/misc/pin.o
 .debug_info    0x0000eb64      0x5f8 ./rt-thread/components/drivers/ipc/completion.o
 .debug_info    0x0000f15c      0x9a9 ./rt-thread/components/drivers/ipc/dataqueue.o
 .debug_info    0x0000fb05     0x139f ./rt-thread/components/dfs/src/dfs.o
 .debug_info    0x00010ea4     0x129d ./rt-thread/components/dfs/src/dfs_file.o
 .debug_info    0x00012141     0x10cf ./rt-thread/components/dfs/src/dfs_fs.o
 .debug_info    0x00013210     0x1431 ./rt-thread/components/dfs/src/dfs_posix.o
 .debug_info    0x00014641      0x8d6 ./libraries/Drivers/drv_common.o
 .debug_info    0x00014f17     0x1ea3 ./libraries/Drivers/drv_gpio.o
 .debug_info    0x00016dba     0x1401 ./libraries/Drivers/drv_usart.o
 .debug_info    0x000181bb       0xa0 ./libraries/APM32F4xx_Library/Device/Geehy/APM32F4xx/Source/gcc/startup_apm32f40x.o
 .debug_info    0x0001825b     0x267f ./libraries/APM32F4xx_Library/Device/Geehy/APM32F4xx/Source/system_apm32f4xx.o
 .debug_info    0x0001a8da      0xf58 ./libraries/APM32F4xx_Library/APM32F4xx_StdPeriphDriver/src/apm32f4xx_eint.o
 .debug_info    0x0001b832     0x16e4 ./libraries/APM32F4xx_Library/APM32F4xx_StdPeriphDriver/src/apm32f4xx_gpio.o
 .debug_info    0x0001cf16      0x8b8 ./libraries/APM32F4xx_Library/APM32F4xx_StdPeriphDriver/src/apm32f4xx_misc.o
 .debug_info    0x0001d7ce     0x2c67 ./libraries/APM32F4xx_Library/APM32F4xx_StdPeriphDriver/src/apm32f4xx_rcm.o
 .debug_info    0x00020435     0x1430 ./libraries/APM32F4xx_Library/APM32F4xx_StdPeriphDriver/src/apm32f4xx_usart.o
 .debug_info    0x00021865     0x13d7 ./board/board.o
 .debug_info    0x00022c3c       0xfc ./applications/main.o

.debug_abbrev   0x00000000     0x47f1
 *(.debug_abbrev)
 .debug_abbrev  0x00000000      0x164 ./rt-thread/src/clock.o
 .debug_abbrev  0x00000164      0x166 ./rt-thread/src/components.o
 .debug_abbrev  0x000002ca      0x177 ./rt-thread/src/device.o
 .debug_abbrev  0x00000441      0x1b2 ./rt-thread/src/idle.o
 .debug_abbrev  0x000005f3      0x1d2 ./rt-thread/src/ipc.o
 .debug_abbrev  0x000007c5       0xde ./rt-thread/src/irq.o
 .debug_abbrev  0x000008a3      0x323 ./rt-thread/src/kservice.o
 .debug_abbrev  0x00000bc6      0x1c3 ./rt-thread/src/mem.o
 .debug_abbrev  0x00000d89      0x1e2 ./rt-thread/src/object.o
 .debug_abbrev  0x00000f6b      0x227 ./rt-thread/src/scheduler.o
 .debug_abbrev  0x00001192      0x1e3 ./rt-thread/src/thread.o
 .debug_abbrev  0x00001375      0x241 ./rt-thread/src/timer.o
 .debug_abbrev  0x000015b6       0x14 ./rt-thread/libcpu/arm/cortex-m4/context_gcc.o
 .debug_abbrev  0x000015ca      0x1f2 ./rt-thread/libcpu/arm/cortex-m4/cpuport.o
 .debug_abbrev  0x000017bc      0x283 ./rt-thread/components/finsh/cmd.o
 .debug_abbrev  0x00001a3f      0x243 ./rt-thread/components/finsh/msh.o
 .debug_abbrev  0x00001c82      0x28e ./rt-thread/components/finsh/msh_file.o
 .debug_abbrev  0x00001f10       0xae ./rt-thread/components/finsh/msh_parse.o
 .debug_abbrev  0x00001fbe      0x2d0 ./rt-thread/components/finsh/shell.o
 .debug_abbrev  0x0000228e      0x22e ./rt-thread/components/drivers/serial/serial.o
 .debug_abbrev  0x000024bc      0x22e ./rt-thread/components/drivers/misc/pin.o
 .debug_abbrev  0x000026ea      0x182 ./rt-thread/components/drivers/ipc/completion.o
 .debug_abbrev  0x0000286c      0x201 ./rt-thread/components/drivers/ipc/dataqueue.o
 .debug_abbrev  0x00002a6d      0x27d ./rt-thread/components/dfs/src/dfs.o
 .debug_abbrev  0x00002cea      0x250 ./rt-thread/components/dfs/src/dfs_file.o
 .debug_abbrev  0x00002f3a      0x213 ./rt-thread/components/dfs/src/dfs_fs.o
 .debug_abbrev  0x0000314d      0x221 ./rt-thread/components/dfs/src/dfs_posix.o
 .debug_abbrev  0x0000336e      0x1fb ./libraries/Drivers/drv_common.o
 .debug_abbrev  0x00003569      0x2e1 ./libraries/Drivers/drv_gpio.o
 .debug_abbrev  0x0000384a      0x29d ./libraries/Drivers/drv_usart.o
 .debug_abbrev  0x00003ae7       0x12 ./libraries/APM32F4xx_Library/Device/Geehy/APM32F4xx/Source/gcc/startup_apm32f40x.o
 .debug_abbrev  0x00003af9      0x196 ./libraries/APM32F4xx_Library/Device/Geehy/APM32F4xx/Source/system_apm32f4xx.o
 .debug_abbrev  0x00003c8f      0x1d1 ./libraries/APM32F4xx_Library/APM32F4xx_StdPeriphDriver/src/apm32f4xx_eint.o
 .debug_abbrev  0x00003e60      0x22a ./libraries/APM32F4xx_Library/APM32F4xx_StdPeriphDriver/src/apm32f4xx_gpio.o
 .debug_abbrev  0x0000408a      0x15d ./libraries/APM32F4xx_Library/APM32F4xx_StdPeriphDriver/src/apm32f4xx_misc.o
 .debug_abbrev  0x000041e7      0x251 ./libraries/APM32F4xx_Library/APM32F4xx_StdPeriphDriver/src/apm32f4xx_rcm.o
 .debug_abbrev  0x00004438      0x1f1 ./libraries/APM32F4xx_Library/APM32F4xx_StdPeriphDriver/src/apm32f4xx_usart.o
 .debug_abbrev  0x00004629      0x14c ./board/board.o
 .debug_abbrev  0x00004775       0x7c ./applications/main.o

.debug_line     0x00000000     0xbaac
 *(.debug_line)
 .debug_line    0x00000000      0x22a ./rt-thread/src/clock.o
 .debug_line    0x0000022a      0x29b ./rt-thread/src/components.o
 .debug_line    0x000004c5      0x441 ./rt-thread/src/device.o
 .debug_line    0x00000906      0x3a4 ./rt-thread/src/idle.o
 .debug_line    0x00000caa      0xe93 ./rt-thread/src/ipc.o
 .debug_line    0x00001b3d      0x213 ./rt-thread/src/irq.o
 .debug_line    0x00001d50      0x828 ./rt-thread/src/kservice.o
 .debug_line    0x00002578      0x43e ./rt-thread/src/mem.o
 .debug_line    0x000029b6      0x4e8 ./rt-thread/src/object.o
 .debug_line    0x00002e9e      0x3a0 ./rt-thread/src/scheduler.o
 .debug_line    0x0000323e      0x50c ./rt-thread/src/thread.o
 .debug_line    0x0000374a      0x53d ./rt-thread/src/timer.o
 .debug_line    0x00003c87       0xdb ./rt-thread/libcpu/arm/cortex-m4/context_gcc.o
 .debug_line    0x00003d62      0x2e6 ./rt-thread/libcpu/arm/cortex-m4/cpuport.o
 .debug_line    0x00004048      0x64f ./rt-thread/components/finsh/cmd.o
 .debug_line    0x00004697      0x546 ./rt-thread/components/finsh/msh.o
 .debug_line    0x00004bdd      0x726 ./rt-thread/components/finsh/msh_file.o
 .debug_line    0x00005303      0x13f ./rt-thread/components/finsh/msh_parse.o
 .debug_line    0x00005442      0x552 ./rt-thread/components/finsh/shell.o
 .debug_line    0x00005994      0x78a ./rt-thread/components/drivers/serial/serial.o
 .debug_line    0x0000611e      0x558 ./rt-thread/components/drivers/misc/pin.o
 .debug_line    0x00006676      0x302 ./rt-thread/components/drivers/ipc/completion.o
 .debug_line    0x00006978      0x4f9 ./rt-thread/components/drivers/ipc/dataqueue.o
 .debug_line    0x00006e71      0x6d4 ./rt-thread/components/dfs/src/dfs.o
 .debug_line    0x00007545      0x69d ./rt-thread/components/dfs/src/dfs_file.o
 .debug_line    0x00007be2      0x635 ./rt-thread/components/dfs/src/dfs_fs.o
 .debug_line    0x00008217      0x782 ./rt-thread/components/dfs/src/dfs_posix.o
 .debug_line    0x00008999      0x394 ./libraries/Drivers/drv_common.o
 .debug_line    0x00008d2d      0x6d1 ./libraries/Drivers/drv_gpio.o
 .debug_line    0x000093fe      0x528 ./libraries/Drivers/drv_usart.o
 .debug_line    0x00009926       0xb1 ./libraries/APM32F4xx_Library/Device/Geehy/APM32F4xx/Source/gcc/startup_apm32f40x.o
 .debug_line    0x000099d7      0x2dc ./libraries/APM32F4xx_Library/Device/Geehy/APM32F4xx/Source/system_apm32f4xx.o
 .debug_line    0x00009cb3      0x38d ./libraries/APM32F4xx_Library/APM32F4xx_StdPeriphDriver/src/apm32f4xx_eint.o
 .debug_line    0x0000a040      0x438 ./libraries/APM32F4xx_Library/APM32F4xx_StdPeriphDriver/src/apm32f4xx_gpio.o
 .debug_line    0x0000a478      0x36d ./libraries/APM32F4xx_Library/APM32F4xx_StdPeriphDriver/src/apm32f4xx_misc.o
 .debug_line    0x0000a7e5      0x7a8 ./libraries/APM32F4xx_Library/APM32F4xx_StdPeriphDriver/src/apm32f4xx_rcm.o
 .debug_line    0x0000af8d      0x630 ./libraries/APM32F4xx_Library/APM32F4xx_StdPeriphDriver/src/apm32f4xx_usart.o
 .debug_line    0x0000b5bd      0x2c6 ./board/board.o
 .debug_line    0x0000b883      0x229 ./applications/main.o

.debug_frame    0x00000000     0x5b38
 *(.debug_frame)
 .debug_frame   0x00000000       0xe4 ./rt-thread/src/clock.o
 .debug_frame   0x000000e4      0x158 ./rt-thread/src/components.o
 .debug_frame   0x0000023c      0x1ec ./rt-thread/src/device.o
 .debug_frame   0x00000428      0x180 ./rt-thread/src/idle.o
 .debug_frame   0x000005a8      0x6f0 ./rt-thread/src/ipc.o
 .debug_frame   0x00000c98       0xcc ./rt-thread/src/irq.o
 .debug_frame   0x00000d64      0x618 ./rt-thread/src/kservice.o
 .debug_frame   0x0000137c       0xec ./rt-thread/src/mem.o
 .debug_frame   0x00001468      0x294 ./rt-thread/src/object.o
 .debug_frame   0x000016fc      0x264 ./rt-thread/src/scheduler.o
 .debug_frame   0x00001960      0x360 ./rt-thread/src/thread.o
 .debug_frame   0x00001cc0      0x33c ./rt-thread/src/timer.o
 .debug_frame   0x00001ffc      0x158 ./rt-thread/libcpu/arm/cortex-m4/cpuport.o
 .debug_frame   0x00002154      0x2d0 ./rt-thread/components/finsh/cmd.o
 .debug_frame   0x00002424      0x180 ./rt-thread/components/finsh/msh.o
 .debug_frame   0x000025a4      0x284 ./rt-thread/components/finsh/msh_file.o
 .debug_frame   0x00002828       0x7c ./rt-thread/components/finsh/msh_parse.o
 .debug_frame   0x000028a4      0x238 ./rt-thread/components/finsh/shell.o
 .debug_frame   0x00002adc      0x2c4 ./rt-thread/components/drivers/serial/serial.o
 .debug_frame   0x00002da0      0x294 ./rt-thread/components/drivers/misc/pin.o
 .debug_frame   0x00003034       0xf4 ./rt-thread/components/drivers/ipc/completion.o
 .debug_frame   0x00003128      0x18c ./rt-thread/components/drivers/ipc/dataqueue.o
 .debug_frame   0x000032b4      0x1c0 ./rt-thread/components/dfs/src/dfs.o
 .debug_frame   0x00003474      0x2cc ./rt-thread/components/dfs/src/dfs_file.o
 .debug_frame   0x00003740      0x18c ./rt-thread/components/dfs/src/dfs_fs.o
 .debug_frame   0x000038cc      0x3f4 ./rt-thread/components/dfs/src/dfs_posix.o
 .debug_frame   0x00003cc0       0xfc ./libraries/Drivers/drv_common.o
 .debug_frame   0x00003dbc      0x280 ./libraries/Drivers/drv_gpio.o
 .debug_frame   0x0000403c      0x104 ./libraries/Drivers/drv_usart.o
 .debug_frame   0x00004140       0x7c ./libraries/APM32F4xx_Library/Device/Geehy/APM32F4xx/Source/system_apm32f4xx.o
 .debug_frame   0x000041bc      0x148 ./libraries/APM32F4xx_Library/APM32F4xx_StdPeriphDriver/src/apm32f4xx_eint.o
 .debug_frame   0x00004304      0x23c ./libraries/APM32F4xx_Library/APM32F4xx_StdPeriphDriver/src/apm32f4xx_gpio.o
 .debug_frame   0x00004540      0x124 ./libraries/APM32F4xx_Library/APM32F4xx_StdPeriphDriver/src/apm32f4xx_misc.o
 .debug_frame   0x00004664      0x984 ./libraries/APM32F4xx_Library/APM32F4xx_StdPeriphDriver/src/apm32f4xx_rcm.o
 .debug_frame   0x00004fe8      0x648 ./libraries/APM32F4xx_Library/APM32F4xx_StdPeriphDriver/src/apm32f4xx_usart.o
 .debug_frame   0x00005630       0x34 ./board/board.o
 .debug_frame   0x00005664       0x30 ./applications/main.o
 .debug_frame   0x00005694       0x30 c:/rt-threadstudio/repo/extract/toolchain_support_packages/arm/gnu_tools_for_arm_embedded_processors/5.4.1/bin/../lib/gcc/arm-none-eabi/5.4.1/../../../../arm-none-eabi/lib/armv7e-m/fpu\libc.a(lib_a-atoi.o)
 .debug_frame   0x000056c4       0x84 c:/rt-threadstudio/repo/extract/toolchain_support_packages/arm/gnu_tools_for_arm_embedded_processors/5.4.1/bin/../lib/gcc/arm-none-eabi/5.4.1/../../../../arm-none-eabi/lib/armv7e-m/fpu\libc.a(lib_a-locale.o)
 .debug_frame   0x00005748       0x4c c:/rt-threadstudio/repo/extract/toolchain_support_packages/arm/gnu_tools_for_arm_embedded_processors/5.4.1/bin/../lib/gcc/arm-none-eabi/5.4.1/../../../../arm-none-eabi/lib/armv7e-m/fpu\libc.a(lib_a-mbtowc_r.o)
 .debug_frame   0x00005794       0x38 c:/rt-threadstudio/repo/extract/toolchain_support_packages/arm/gnu_tools_for_arm_embedded_processors/5.4.1/bin/../lib/gcc/arm-none-eabi/5.4.1/../../../../arm-none-eabi/lib/armv7e-m/fpu\libc.a(lib_a-memcmp.o)
 .debug_frame   0x000057cc       0x4c c:/rt-threadstudio/repo/extract/toolchain_support_packages/arm/gnu_tools_for_arm_embedded_processors/5.4.1/bin/../lib/gcc/arm-none-eabi/5.4.1/../../../../arm-none-eabi/lib/armv7e-m/fpu\libc.a(lib_a-strchr.o)
 .debug_frame   0x00005818       0x68 c:/rt-threadstudio/repo/extract/toolchain_support_packages/arm/gnu_tools_for_arm_embedded_processors/5.4.1/bin/../lib/gcc/arm-none-eabi/5.4.1/../../../../arm-none-eabi/lib/armv7e-m/fpu\libc.a(lib_a-strcmp.o)
 .debug_frame   0x00005880       0x20 c:/rt-threadstudio/repo/extract/toolchain_support_packages/arm/gnu_tools_for_arm_embedded_processors/5.4.1/bin/../lib/gcc/arm-none-eabi/5.4.1/../../../../arm-none-eabi/lib/armv7e-m/fpu\libc.a(lib_a-strcpy.o)
 .debug_frame   0x000058a0       0x30 c:/rt-threadstudio/repo/extract/toolchain_support_packages/arm/gnu_tools_for_arm_embedded_processors/5.4.1/bin/../lib/gcc/arm-none-eabi/5.4.1/../../../../arm-none-eabi/lib/armv7e-m/fpu\libc.a(lib_a-strncat.o)
 .debug_frame   0x000058d0       0x54 c:/rt-threadstudio/repo/extract/toolchain_support_packages/arm/gnu_tools_for_arm_embedded_processors/5.4.1/bin/../lib/gcc/arm-none-eabi/5.4.1/../../../../arm-none-eabi/lib/armv7e-m/fpu\libc.a(lib_a-strncmp.o)
 .debug_frame   0x00005924       0x34 c:/rt-threadstudio/repo/extract/toolchain_support_packages/arm/gnu_tools_for_arm_embedded_processors/5.4.1/bin/../lib/gcc/arm-none-eabi/5.4.1/../../../../arm-none-eabi/lib/armv7e-m/fpu\libc.a(lib_a-strncpy.o)
 .debug_frame   0x00005958       0x34 c:/rt-threadstudio/repo/extract/toolchain_support_packages/arm/gnu_tools_for_arm_embedded_processors/5.4.1/bin/../lib/gcc/arm-none-eabi/5.4.1/../../../../arm-none-eabi/lib/armv7e-m/fpu\libc.a(lib_a-strrchr.o)
 .debug_frame   0x0000598c       0xd8 c:/rt-threadstudio/repo/extract/toolchain_support_packages/arm/gnu_tools_for_arm_embedded_processors/5.4.1/bin/../lib/gcc/arm-none-eabi/5.4.1/../../../../arm-none-eabi/lib/armv7e-m/fpu\libc.a(lib_a-strstr.o)
 .debug_frame   0x00005a64       0x98 c:/rt-threadstudio/repo/extract/toolchain_support_packages/arm/gnu_tools_for_arm_embedded_processors/5.4.1/bin/../lib/gcc/arm-none-eabi/5.4.1/../../../../arm-none-eabi/lib/armv7e-m/fpu\libc.a(lib_a-strtol.o)
 .debug_frame   0x00005afc       0x3c c:/rt-threadstudio/repo/extract/toolchain_support_packages/arm/gnu_tools_for_arm_embedded_processors/5.4.1/bin/../lib/gcc/arm-none-eabi/5.4.1/../../../../arm-none-eabi/lib/armv7e-m/fpu\libc.a(lib_a-wctomb_r.o)

.debug_str      0x00000000     0x806c
 *(.debug_str)
 .debug_str     0x00000000      0x319 ./rt-thread/src/clock.o
                                0x3d4 (size before relaxing)
 .debug_str     0x00000319      0x108 ./rt-thread/src/components.o
                                0x440 (size before relaxing)
 .debug_str     0x00000421      0x5c0 ./rt-thread/src/device.o
                                0x841 (size before relaxing)
 .debug_str     0x000009e1      0x156 ./rt-thread/src/idle.o
                                0x4a4 (size before relaxing)
 .debug_str     0x00000b37      0x488 ./rt-thread/src/ipc.o
                                0x9aa (size before relaxing)
 .debug_str     0x00000fbf       0xcb ./rt-thread/src/irq.o
                                0x286 (size before relaxing)
 .debug_str     0x0000108a      0x42c ./rt-thread/src/kservice.o
                                0xb88 (size before relaxing)
 .debug_str     0x000014b6       0xe2 ./rt-thread/src/mem.o
                                0x4f7 (size before relaxing)
 .debug_str     0x00001598      0x2d4 ./rt-thread/src/object.o
                                0x70e (size before relaxing)
 .debug_str     0x0000186c      0x22c ./rt-thread/src/scheduler.o
                                0x623 (size before relaxing)
 .debug_str     0x00001a98      0x1f3 ./rt-thread/src/thread.o
                                0x70e (size before relaxing)
 .debug_str     0x00001c8b      0x203 ./rt-thread/src/timer.o
                                0x75c (size before relaxing)
 .debug_str     0x00001e8e      0x1ae ./rt-thread/libcpu/arm/cortex-m4/cpuport.o
                                0x3d3 (size before relaxing)
 .debug_str     0x0000203c      0x45f ./rt-thread/components/finsh/cmd.o
                                0xe3f (size before relaxing)
 .debug_str     0x0000249b      0x1e2 ./rt-thread/components/finsh/msh.o
                                0x446 (size before relaxing)
 .debug_str     0x0000267d      0x57b ./rt-thread/components/finsh/msh_file.o
                                0xc3b (size before relaxing)
 .debug_str     0x00002bf8       0x54 ./rt-thread/components/finsh/msh_parse.o
                                0x1ed (size before relaxing)
 .debug_str     0x00002c4c      0x230 ./rt-thread/components/finsh/shell.o
                                0x9bf (size before relaxing)
 .debug_str     0x00002e7c      0x361 ./rt-thread/components/drivers/serial/serial.o
                                0x9cc (size before relaxing)
 .debug_str     0x000031dd      0x1a1 ./rt-thread/components/drivers/misc/pin.o
                                0x819 (size before relaxing)
 .debug_str     0x0000337e       0x6a ./rt-thread/components/drivers/ipc/completion.o
                                0x426 (size before relaxing)
 .debug_str     0x000033e8       0xb6 ./rt-thread/components/drivers/ipc/dataqueue.o
                                0x52e (size before relaxing)
 .debug_str     0x0000349e      0x157 ./rt-thread/components/dfs/src/dfs.o
                                0xb1c (size before relaxing)
 .debug_str     0x000035f5      0x18d ./rt-thread/components/dfs/src/dfs_file.o
                                0xa07 (size before relaxing)
 .debug_str     0x00003782      0x122 ./rt-thread/components/dfs/src/dfs_fs.o
                                0x9f1 (size before relaxing)
 .debug_str     0x000038a4       0xc2 ./rt-thread/components/dfs/src/dfs_posix.o
                                0x939 (size before relaxing)
 .debug_str     0x00003966      0x688 ./libraries/Drivers/drv_common.o
                                0x8c6 (size before relaxing)
 .debug_str     0x00003fee      0xaed ./libraries/Drivers/drv_gpio.o
                               0x1709 (size before relaxing)
 .debug_str     0x00004adb      0x564 ./libraries/Drivers/drv_usart.o
                               0x1131 (size before relaxing)
 .debug_str     0x0000503f      0x919 ./libraries/APM32F4xx_Library/Device/Geehy/APM32F4xx/Source/system_apm32f4xx.o
                                0xc37 (size before relaxing)
 .debug_str     0x00005958      0x5fa ./libraries/APM32F4xx_Library/APM32F4xx_StdPeriphDriver/src/apm32f4xx_eint.o
                                0x91a (size before relaxing)
 .debug_str     0x00005f52      0x603 ./libraries/APM32F4xx_Library/APM32F4xx_StdPeriphDriver/src/apm32f4xx_gpio.o
                               0x10a0 (size before relaxing)
 .debug_str     0x00006555      0x2cb ./libraries/APM32F4xx_Library/APM32F4xx_StdPeriphDriver/src/apm32f4xx_misc.o
                                0xa44 (size before relaxing)
 .debug_str     0x00006820      0xe74 ./libraries/APM32F4xx_Library/APM32F4xx_StdPeriphDriver/src/apm32f4xx_rcm.o
                               0x182c (size before relaxing)
 .debug_str     0x00007694      0x984 ./libraries/APM32F4xx_Library/APM32F4xx_StdPeriphDriver/src/apm32f4xx_usart.o
                               0x106a (size before relaxing)
 .debug_str     0x00008018       0x34 ./board/board.o
                               0x10af (size before relaxing)
 .debug_str     0x0000804c       0x20 ./applications/main.o
                                0x1eb (size before relaxing)

.debug_loc      0x00000000     0xb881
 *(.debug_loc)
 .debug_loc     0x00000000      0x1c8 ./rt-thread/src/clock.o
 .debug_loc     0x000001c8      0x2a8 ./rt-thread/src/components.o
 .debug_loc     0x00000470      0x410 ./rt-thread/src/device.o
 .debug_loc     0x00000880      0x32c ./rt-thread/src/idle.o
 .debug_loc     0x00000bac      0xf24 ./rt-thread/src/ipc.o
 .debug_loc     0x00001ad0      0x1a8 ./rt-thread/src/irq.o
 .debug_loc     0x00001c78      0xd2c ./rt-thread/src/kservice.o
 .debug_loc     0x000029a4      0x1e0 ./rt-thread/src/mem.o
 .debug_loc     0x00002b84      0x5b0 ./rt-thread/src/object.o
 .debug_loc     0x00003134      0x53c ./rt-thread/src/scheduler.o
 .debug_loc     0x00003670      0x760 ./rt-thread/src/thread.o
 .debug_loc     0x00003dd0      0x710 ./rt-thread/src/timer.o
 .debug_loc     0x000044e0      0x284 ./rt-thread/libcpu/arm/cortex-m4/cpuport.o
 .debug_loc     0x00004764      0x582 ./rt-thread/components/finsh/cmd.o
 .debug_loc     0x00004ce6      0x32e ./rt-thread/components/finsh/msh.o
 .debug_loc     0x00005014      0x553 ./rt-thread/components/finsh/msh_file.o
 .debug_loc     0x00005567       0xf0 ./rt-thread/components/finsh/msh_parse.o
 .debug_loc     0x00005657      0x464 ./rt-thread/components/finsh/shell.o
 .debug_loc     0x00005abb      0x5ce ./rt-thread/components/drivers/serial/serial.o
 .debug_loc     0x00006089      0x57c ./rt-thread/components/drivers/misc/pin.o
 .debug_loc     0x00006605      0x204 ./rt-thread/components/drivers/ipc/completion.o
 .debug_loc     0x00006809      0x344 ./rt-thread/components/drivers/ipc/dataqueue.o
 .debug_loc     0x00006b4d      0x384 ./rt-thread/components/dfs/src/dfs.o
 .debug_loc     0x00006ed1      0x5fa ./rt-thread/components/dfs/src/dfs_file.o
 .debug_loc     0x000074cb      0x324 ./rt-thread/components/dfs/src/dfs_fs.o
 .debug_loc     0x000077ef      0x88e ./rt-thread/components/dfs/src/dfs_posix.o
 .debug_loc     0x0000807d      0x1dc ./libraries/Drivers/drv_common.o
 .debug_loc     0x00008259      0x4dc ./libraries/Drivers/drv_gpio.o
 .debug_loc     0x00008735      0x20c ./libraries/Drivers/drv_usart.o
 .debug_loc     0x00008941       0xe4 ./libraries/APM32F4xx_Library/Device/Geehy/APM32F4xx/Source/system_apm32f4xx.o
 .debug_loc     0x00008a25      0x2c8 ./libraries/APM32F4xx_Library/APM32F4xx_StdPeriphDriver/src/apm32f4xx_eint.o
 .debug_loc     0x00008ced      0x4fc ./libraries/APM32F4xx_Library/APM32F4xx_StdPeriphDriver/src/apm32f4xx_gpio.o
 .debug_loc     0x000091e9      0x278 ./libraries/APM32F4xx_Library/APM32F4xx_StdPeriphDriver/src/apm32f4xx_misc.o
 .debug_loc     0x00009461     0x1550 ./libraries/APM32F4xx_Library/APM32F4xx_StdPeriphDriver/src/apm32f4xx_rcm.o
 .debug_loc     0x0000a9b1      0xe48 ./libraries/APM32F4xx_Library/APM32F4xx_StdPeriphDriver/src/apm32f4xx_usart.o
 .debug_loc     0x0000b7f9       0x50 ./board/board.o
 .debug_loc     0x0000b849       0x38 ./applications/main.o

.debug_macinfo
 *(.debug_macinfo)

.debug_weaknames
 *(.debug_weaknames)

.debug_funcnames
 *(.debug_funcnames)

.debug_typenames
 *(.debug_typenames)

.debug_varnames
 *(.debug_varnames)
OUTPUT(rtthread.elf elf32-littlearm)

.debug_ranges   0x00000000     0x1448
 .debug_ranges  0x00000000       0x38 ./rt-thread/src/clock.o
 .debug_ranges  0x00000038       0x58 ./rt-thread/src/components.o
 .debug_ranges  0x00000090       0x70 ./rt-thread/src/device.o
 .debug_ranges  0x00000100       0x70 ./rt-thread/src/idle.o
 .debug_ranges  0x00000170      0x188 ./rt-thread/src/ipc.o
 .debug_ranges  0x000002f8       0x30 ./rt-thread/src/irq.o
 .debug_ranges  0x00000328      0x148 ./rt-thread/src/kservice.o
 .debug_ranges  0x00000470       0x38 ./rt-thread/src/mem.o
 .debug_ranges  0x000004a8       0x90 ./rt-thread/src/object.o
 .debug_ranges  0x00000538       0xb8 ./rt-thread/src/scheduler.o
 .debug_ranges  0x000005f0       0xc0 ./rt-thread/src/thread.o
 .debug_ranges  0x000006b0       0xd0 ./rt-thread/src/timer.o
 .debug_ranges  0x00000780       0x70 ./rt-thread/libcpu/arm/cortex-m4/cpuport.o
 .debug_ranges  0x000007f0       0x98 ./rt-thread/components/finsh/cmd.o
 .debug_ranges  0x00000888       0x58 ./rt-thread/components/finsh/msh.o
 .debug_ranges  0x000008e0       0x90 ./rt-thread/components/finsh/msh_file.o
 .debug_ranges  0x00000970       0x20 ./rt-thread/components/finsh/msh_parse.o
 .debug_ranges  0x00000990       0x88 ./rt-thread/components/finsh/shell.o
 .debug_ranges  0x00000a18       0xe8 ./rt-thread/components/drivers/serial/serial.o
 .debug_ranges  0x00000b00       0x98 ./rt-thread/components/drivers/misc/pin.o
 .debug_ranges  0x00000b98       0x38 ./rt-thread/components/drivers/ipc/completion.o
 .debug_ranges  0x00000bd0       0x58 ./rt-thread/components/drivers/ipc/dataqueue.o
 .debug_ranges  0x00000c28       0x80 ./rt-thread/components/dfs/src/dfs.o
 .debug_ranges  0x00000ca8       0xa0 ./rt-thread/components/dfs/src/dfs_file.o
 .debug_ranges  0x00000d48       0x58 ./rt-thread/components/dfs/src/dfs_fs.o
 .debug_ranges  0x00000da0       0xd8 ./rt-thread/components/dfs/src/dfs_posix.o
 .debug_ranges  0x00000e78       0x40 ./libraries/Drivers/drv_common.o
 .debug_ranges  0x00000eb8       0xa0 ./libraries/Drivers/drv_gpio.o
 .debug_ranges  0x00000f58       0x40 ./libraries/Drivers/drv_usart.o
 .debug_ranges  0x00000f98       0x20 ./libraries/APM32F4xx_Library/Device/Geehy/APM32F4xx/Source/gcc/startup_apm32f40x.o
 .debug_ranges  0x00000fb8       0x20 ./libraries/APM32F4xx_Library/Device/Geehy/APM32F4xx/Source/system_apm32f4xx.o
 .debug_ranges  0x00000fd8       0x48 ./libraries/APM32F4xx_Library/APM32F4xx_StdPeriphDriver/src/apm32f4xx_eint.o
 .debug_ranges  0x00001020       0x78 ./libraries/APM32F4xx_Library/APM32F4xx_StdPeriphDriver/src/apm32f4xx_gpio.o
 .debug_ranges  0x00001098       0x40 ./libraries/APM32F4xx_Library/APM32F4xx_StdPeriphDriver/src/apm32f4xx_misc.o
 .debug_ranges  0x000010d8      0x208 ./libraries/APM32F4xx_Library/APM32F4xx_StdPeriphDriver/src/apm32f4xx_rcm.o
 .debug_ranges  0x000012e0      0x148 ./libraries/APM32F4xx_Library/APM32F4xx_StdPeriphDriver/src/apm32f4xx_usart.o
 .debug_ranges  0x00001428       0x10 ./board/board.o
 .debug_ranges  0x00001438       0x10 ./applications/main.o

Cross Reference Table

Symbol                                            File
ADC_IRQHandler                                    ./libraries/APM32F4xx_Library/Device/Geehy/APM32F4xx/Source/gcc/startup_apm32f40x.o
AHBPrescTable                                     ./libraries/APM32F4xx_Library/Device/Geehy/APM32F4xx/Source/system_apm32f4xx.o
BN_IRQHandler                                     ./libraries/APM32F4xx_Library/Device/Geehy/APM32F4xx/Source/gcc/startup_apm32f40x.o
BusFault_Handler                                  ./libraries/APM32F4xx_Library/Device/Geehy/APM32F4xx/Source/gcc/startup_apm32f40x.o
CAN1_RX0_IRQHandler                               ./libraries/APM32F4xx_Library/Device/Geehy/APM32F4xx/Source/gcc/startup_apm32f40x.o
CAN1_RX1_IRQHandler                               ./libraries/APM32F4xx_Library/Device/Geehy/APM32F4xx/Source/gcc/startup_apm32f40x.o
CAN1_SCE_IRQHandler                               ./libraries/APM32F4xx_Library/Device/Geehy/APM32F4xx/Source/gcc/startup_apm32f40x.o
CAN1_TX_IRQHandler                                ./libraries/APM32F4xx_Library/Device/Geehy/APM32F4xx/Source/gcc/startup_apm32f40x.o
CAN2_RX0_IRQHandler                               ./libraries/APM32F4xx_Library/Device/Geehy/APM32F4xx/Source/gcc/startup_apm32f40x.o
CAN2_RX1_IRQHandler                               ./libraries/APM32F4xx_Library/Device/Geehy/APM32F4xx/Source/gcc/startup_apm32f40x.o
CAN2_SCE_IRQHandler                               ./libraries/APM32F4xx_Library/Device/Geehy/APM32F4xx/Source/gcc/startup_apm32f40x.o
CAN2_TX_IRQHandler                                ./libraries/APM32F4xx_Library/Device/Geehy/APM32F4xx/Source/gcc/startup_apm32f40x.o
DCI_IRQHandler                                    ./libraries/APM32F4xx_Library/Device/Geehy/APM32F4xx/Source/gcc/startup_apm32f40x.o
DMA1_STR0_IRQHandler                              ./libraries/APM32F4xx_Library/Device/Geehy/APM32F4xx/Source/gcc/startup_apm32f40x.o
DMA1_STR1_IRQHandler                              ./libraries/APM32F4xx_Library/Device/Geehy/APM32F4xx/Source/gcc/startup_apm32f40x.o
DMA1_STR2_IRQHandler                              ./libraries/APM32F4xx_Library/Device/Geehy/APM32F4xx/Source/gcc/startup_apm32f40x.o
DMA1_STR3_IRQHandler                              ./libraries/APM32F4xx_Library/Device/Geehy/APM32F4xx/Source/gcc/startup_apm32f40x.o
DMA1_STR4_IRQHandler                              ./libraries/APM32F4xx_Library/Device/Geehy/APM32F4xx/Source/gcc/startup_apm32f40x.o
DMA1_STR5_IRQHandler                              ./libraries/APM32F4xx_Library/Device/Geehy/APM32F4xx/Source/gcc/startup_apm32f40x.o
DMA1_STR6_IRQHandler                              ./libraries/APM32F4xx_Library/Device/Geehy/APM32F4xx/Source/gcc/startup_apm32f40x.o
DMA1_STR7_IRQHandler                              ./libraries/APM32F4xx_Library/Device/Geehy/APM32F4xx/Source/gcc/startup_apm32f40x.o
DMA2_STR0_IRQHandler                              ./libraries/APM32F4xx_Library/Device/Geehy/APM32F4xx/Source/gcc/startup_apm32f40x.o
DMA2_STR1_IRQHandler                              ./libraries/APM32F4xx_Library/Device/Geehy/APM32F4xx/Source/gcc/startup_apm32f40x.o
DMA2_STR2_IRQHandler                              ./libraries/APM32F4xx_Library/Device/Geehy/APM32F4xx/Source/gcc/startup_apm32f40x.o
DMA2_STR3_IRQHandler                              ./libraries/APM32F4xx_Library/Device/Geehy/APM32F4xx/Source/gcc/startup_apm32f40x.o
DMA2_STR4_IRQHandler                              ./libraries/APM32F4xx_Library/Device/Geehy/APM32F4xx/Source/gcc/startup_apm32f40x.o
DMA2_STR5_IRQHandler                              ./libraries/APM32F4xx_Library/Device/Geehy/APM32F4xx/Source/gcc/startup_apm32f40x.o
DMA2_STR6_IRQHandler                              ./libraries/APM32F4xx_Library/Device/Geehy/APM32F4xx/Source/gcc/startup_apm32f40x.o
DMA2_STR7_IRQHandler                              ./libraries/APM32F4xx_Library/Device/Geehy/APM32F4xx/Source/gcc/startup_apm32f40x.o
DebugMon_Handler                                  ./libraries/APM32F4xx_Library/Device/Geehy/APM32F4xx/Source/gcc/startup_apm32f40x.o
Default_Handler                                   ./libraries/APM32F4xx_Library/Device/Geehy/APM32F4xx/Source/gcc/startup_apm32f40x.o
EINT0_IRQHandler                                  ./libraries/Drivers/drv_gpio.o
EINT15_10_IRQHandler                              ./libraries/Drivers/drv_gpio.o
EINT1_IRQHandler                                  ./libraries/Drivers/drv_gpio.o
EINT2_IRQHandler                                  ./libraries/Drivers/drv_gpio.o
EINT3_IRQHandler                                  ./libraries/Drivers/drv_gpio.o
EINT4_IRQHandler                                  ./libraries/Drivers/drv_gpio.o
EINT9_5_IRQHandler                                ./libraries/Drivers/drv_gpio.o
EINT_ClearIntFlag                                 ./libraries/APM32F4xx_Library/APM32F4xx_StdPeriphDriver/src/apm32f4xx_eint.o
                                                  ./libraries/Drivers/drv_gpio.o
EINT_ClearStatusFlag                              ./libraries/APM32F4xx_Library/APM32F4xx_StdPeriphDriver/src/apm32f4xx_eint.o
EINT_Config                                       ./libraries/APM32F4xx_Library/APM32F4xx_StdPeriphDriver/src/apm32f4xx_eint.o
EINT_ConfigStructInit                             ./libraries/APM32F4xx_Library/APM32F4xx_StdPeriphDriver/src/apm32f4xx_eint.o
EINT_ReadIntFlag                                  ./libraries/APM32F4xx_Library/APM32F4xx_StdPeriphDriver/src/apm32f4xx_eint.o
                                                  ./libraries/Drivers/drv_gpio.o
EINT_ReadStatusFlag                               ./libraries/APM32F4xx_Library/APM32F4xx_StdPeriphDriver/src/apm32f4xx_eint.o
EINT_Reset                                        ./libraries/APM32F4xx_Library/APM32F4xx_StdPeriphDriver/src/apm32f4xx_eint.o
EINT_SelectSWInterrupt                            ./libraries/APM32F4xx_Library/APM32F4xx_StdPeriphDriver/src/apm32f4xx_eint.o
EMMC_IRQHandler                                   ./libraries/APM32F4xx_Library/Device/Geehy/APM32F4xx/Source/gcc/startup_apm32f40x.o
ETH_IRQHandler                                    ./libraries/APM32F4xx_Library/Device/Geehy/APM32F4xx/Source/gcc/startup_apm32f40x.o
ETH_WKUP_IRQHandler                               ./libraries/APM32F4xx_Library/Device/Geehy/APM32F4xx/Source/gcc/startup_apm32f40x.o
FLASH_IRQHandler                                  ./libraries/APM32F4xx_Library/Device/Geehy/APM32F4xx/Source/gcc/startup_apm32f40x.o
FPU_IRQHandler                                    ./libraries/APM32F4xx_Library/Device/Geehy/APM32F4xx/Source/gcc/startup_apm32f40x.o
GPIO_Config                                       ./libraries/APM32F4xx_Library/APM32F4xx_StdPeriphDriver/src/apm32f4xx_gpio.o
                                                  ./board/board.o
                                                  ./libraries/Drivers/drv_gpio.o
GPIO_ConfigPinAF                                  ./libraries/APM32F4xx_Library/APM32F4xx_StdPeriphDriver/src/apm32f4xx_gpio.o
                                                  ./board/board.o
GPIO_ConfigPinLock                                ./libraries/APM32F4xx_Library/APM32F4xx_StdPeriphDriver/src/apm32f4xx_gpio.o
GPIO_ConfigStructInit                             ./libraries/APM32F4xx_Library/APM32F4xx_StdPeriphDriver/src/apm32f4xx_gpio.o
GPIO_EXTI_IRQHandler                              ./libraries/Drivers/drv_gpio.o
GPIO_ReadInputBit                                 ./libraries/APM32F4xx_Library/APM32F4xx_StdPeriphDriver/src/apm32f4xx_gpio.o
                                                  ./libraries/Drivers/drv_gpio.o
GPIO_ReadInputPort                                ./libraries/APM32F4xx_Library/APM32F4xx_StdPeriphDriver/src/apm32f4xx_gpio.o
GPIO_ReadOutputBit                                ./libraries/APM32F4xx_Library/APM32F4xx_StdPeriphDriver/src/apm32f4xx_gpio.o
GPIO_ReadOutputPort                               ./libraries/APM32F4xx_Library/APM32F4xx_StdPeriphDriver/src/apm32f4xx_gpio.o
GPIO_Reset                                        ./libraries/APM32F4xx_Library/APM32F4xx_StdPeriphDriver/src/apm32f4xx_gpio.o
GPIO_ResetBit                                     ./libraries/APM32F4xx_Library/APM32F4xx_StdPeriphDriver/src/apm32f4xx_gpio.o
GPIO_SetBit                                       ./libraries/APM32F4xx_Library/APM32F4xx_StdPeriphDriver/src/apm32f4xx_gpio.o
GPIO_ToggleBit                                    ./libraries/APM32F4xx_Library/APM32F4xx_StdPeriphDriver/src/apm32f4xx_gpio.o
GPIO_WriteBitValue                                ./libraries/APM32F4xx_Library/APM32F4xx_StdPeriphDriver/src/apm32f4xx_gpio.o
                                                  ./libraries/Drivers/drv_gpio.o
GPIO_WriteOutputPort                              ./libraries/APM32F4xx_Library/APM32F4xx_StdPeriphDriver/src/apm32f4xx_gpio.o
HardFault_Handler                                 ./rt-thread/libcpu/arm/cortex-m4/context_gcc.o
I2C1_ER_IRQHandler                                ./libraries/APM32F4xx_Library/Device/Geehy/APM32F4xx/Source/gcc/startup_apm32f40x.o
I2C1_EV_IRQHandler                                ./libraries/APM32F4xx_Library/Device/Geehy/APM32F4xx/Source/gcc/startup_apm32f40x.o
I2C2_ER_IRQHandler                                ./libraries/APM32F4xx_Library/Device/Geehy/APM32F4xx/Source/gcc/startup_apm32f40x.o
I2C2_EV_IRQHandler                                ./libraries/APM32F4xx_Library/Device/Geehy/APM32F4xx/Source/gcc/startup_apm32f40x.o
I2C3_ER_IRQHandler                                ./libraries/APM32F4xx_Library/Device/Geehy/APM32F4xx/Source/gcc/startup_apm32f40x.o
I2C3_EV_IRQHandler                                ./libraries/APM32F4xx_Library/Device/Geehy/APM32F4xx/Source/gcc/startup_apm32f40x.o
MemManage_Handler                                 ./libraries/APM32F4xx_Library/Device/Geehy/APM32F4xx/Source/gcc/startup_apm32f40x.o
NMI_Handler                                       ./libraries/APM32F4xx_Library/Device/Geehy/APM32F4xx/Source/gcc/startup_apm32f40x.o
NVIC_ConfigPriorityGroup                          ./libraries/APM32F4xx_Library/APM32F4xx_StdPeriphDriver/src/apm32f4xx_misc.o
NVIC_ConfigVectorTable                            ./libraries/APM32F4xx_Library/APM32F4xx_StdPeriphDriver/src/apm32f4xx_misc.o
NVIC_DisableIRQRequest                            ./libraries/APM32F4xx_Library/APM32F4xx_StdPeriphDriver/src/apm32f4xx_misc.o
                                                  ./libraries/Drivers/drv_usart.o
                                                  ./libraries/Drivers/drv_gpio.o
NVIC_EnableIRQRequest                             ./libraries/APM32F4xx_Library/APM32F4xx_StdPeriphDriver/src/apm32f4xx_misc.o
                                                  ./libraries/Drivers/drv_usart.o
                                                  ./libraries/Drivers/drv_gpio.o
NVIC_ResetystemLowPower                           ./libraries/APM32F4xx_Library/APM32F4xx_StdPeriphDriver/src/apm32f4xx_misc.o
NVIC_SetSystemLowPower                            ./libraries/APM32F4xx_Library/APM32F4xx_StdPeriphDriver/src/apm32f4xx_misc.o
OTG_FS_IRQHandler                                 ./libraries/APM32F4xx_Library/Device/Geehy/APM32F4xx/Source/gcc/startup_apm32f40x.o
OTG_FS_WKUP_IRQHandler                            ./libraries/APM32F4xx_Library/Device/Geehy/APM32F4xx/Source/gcc/startup_apm32f40x.o
OTG_HS1_EP1_IN_IRQHandler                         ./libraries/APM32F4xx_Library/Device/Geehy/APM32F4xx/Source/gcc/startup_apm32f40x.o
OTG_HS1_EP1_OUT_IRQHandler                        ./libraries/APM32F4xx_Library/Device/Geehy/APM32F4xx/Source/gcc/startup_apm32f40x.o
OTG_HS1_IRQHandler                                ./libraries/APM32F4xx_Library/Device/Geehy/APM32F4xx/Source/gcc/startup_apm32f40x.o
OTG_HS1_WKUP_IRQHandler                           ./libraries/APM32F4xx_Library/Device/Geehy/APM32F4xx/Source/gcc/startup_apm32f40x.o
PVD_IRQHandler                                    ./libraries/APM32F4xx_Library/Device/Geehy/APM32F4xx/Source/gcc/startup_apm32f40x.o
PendSV_Handler                                    ./rt-thread/libcpu/arm/cortex-m4/context_gcc.o
RCM_ClearIntFlag                                  ./libraries/APM32F4xx_Library/APM32F4xx_StdPeriphDriver/src/apm32f4xx_rcm.o
RCM_ClearStatusFlag                               ./libraries/APM32F4xx_Library/APM32F4xx_StdPeriphDriver/src/apm32f4xx_rcm.o
RCM_ConfigAHB                                     ./libraries/APM32F4xx_Library/APM32F4xx_StdPeriphDriver/src/apm32f4xx_rcm.o
RCM_ConfigAPB1                                    ./libraries/APM32F4xx_Library/APM32F4xx_StdPeriphDriver/src/apm32f4xx_rcm.o
RCM_ConfigAPB2                                    ./libraries/APM32F4xx_Library/APM32F4xx_StdPeriphDriver/src/apm32f4xx_rcm.o
RCM_ConfigHSE                                     ./libraries/APM32F4xx_Library/APM32F4xx_StdPeriphDriver/src/apm32f4xx_rcm.o
RCM_ConfigHSITrim                                 ./libraries/APM32F4xx_Library/APM32F4xx_StdPeriphDriver/src/apm32f4xx_rcm.o
RCM_ConfigI2SCLK                                  ./libraries/APM32F4xx_Library/APM32F4xx_StdPeriphDriver/src/apm32f4xx_rcm.o
RCM_ConfigLSE                                     ./libraries/APM32F4xx_Library/APM32F4xx_StdPeriphDriver/src/apm32f4xx_rcm.o
RCM_ConfigMCO1                                    ./libraries/APM32F4xx_Library/APM32F4xx_StdPeriphDriver/src/apm32f4xx_rcm.o
RCM_ConfigMCO2                                    ./libraries/APM32F4xx_Library/APM32F4xx_StdPeriphDriver/src/apm32f4xx_rcm.o
RCM_ConfigPLL1                                    ./libraries/APM32F4xx_Library/APM32F4xx_StdPeriphDriver/src/apm32f4xx_rcm.o
RCM_ConfigPLL2                                    ./libraries/APM32F4xx_Library/APM32F4xx_StdPeriphDriver/src/apm32f4xx_rcm.o
RCM_ConfigRTCCLK                                  ./libraries/APM32F4xx_Library/APM32F4xx_StdPeriphDriver/src/apm32f4xx_rcm.o
RCM_ConfigSDRAM                                   ./libraries/APM32F4xx_Library/APM32F4xx_StdPeriphDriver/src/apm32f4xx_rcm.o
RCM_ConfigSYSCLK                                  ./libraries/APM32F4xx_Library/APM32F4xx_StdPeriphDriver/src/apm32f4xx_rcm.o
RCM_DisableAHB1PeriphClock                        ./libraries/APM32F4xx_Library/APM32F4xx_StdPeriphDriver/src/apm32f4xx_rcm.o
RCM_DisableAHB1PeriphClockLPMode                  ./libraries/APM32F4xx_Library/APM32F4xx_StdPeriphDriver/src/apm32f4xx_rcm.o
RCM_DisableAHB1PeriphReset                        ./libraries/APM32F4xx_Library/APM32F4xx_StdPeriphDriver/src/apm32f4xx_rcm.o
                                                  ./libraries/APM32F4xx_Library/APM32F4xx_StdPeriphDriver/src/apm32f4xx_gpio.o
RCM_DisableAHB2PeriphClock                        ./libraries/APM32F4xx_Library/APM32F4xx_StdPeriphDriver/src/apm32f4xx_rcm.o
RCM_DisableAHB2PeriphClockLPMode                  ./libraries/APM32F4xx_Library/APM32F4xx_StdPeriphDriver/src/apm32f4xx_rcm.o
RCM_DisableAHB2PeriphReset                        ./libraries/APM32F4xx_Library/APM32F4xx_StdPeriphDriver/src/apm32f4xx_rcm.o
RCM_DisableAPB1PeriphClock                        ./libraries/APM32F4xx_Library/APM32F4xx_StdPeriphDriver/src/apm32f4xx_rcm.o
RCM_DisableAPB1PeriphClockLPMode                  ./libraries/APM32F4xx_Library/APM32F4xx_StdPeriphDriver/src/apm32f4xx_rcm.o
RCM_DisableAPB1PeriphReset                        ./libraries/APM32F4xx_Library/APM32F4xx_StdPeriphDriver/src/apm32f4xx_rcm.o
                                                  ./libraries/APM32F4xx_Library/APM32F4xx_StdPeriphDriver/src/apm32f4xx_usart.o
RCM_DisableAPB2PeriphClock                        ./libraries/APM32F4xx_Library/APM32F4xx_StdPeriphDriver/src/apm32f4xx_rcm.o
RCM_DisableAPB2PeriphClockLPMode                  ./libraries/APM32F4xx_Library/APM32F4xx_StdPeriphDriver/src/apm32f4xx_rcm.o
RCM_DisableAPB2PeriphReset                        ./libraries/APM32F4xx_Library/APM32F4xx_StdPeriphDriver/src/apm32f4xx_rcm.o
                                                  ./libraries/APM32F4xx_Library/APM32F4xx_StdPeriphDriver/src/apm32f4xx_usart.o
RCM_DisableBackupReset                            ./libraries/APM32F4xx_Library/APM32F4xx_StdPeriphDriver/src/apm32f4xx_rcm.o
RCM_DisableCSS                                    ./libraries/APM32F4xx_Library/APM32F4xx_StdPeriphDriver/src/apm32f4xx_rcm.o
RCM_DisableHSI                                    ./libraries/APM32F4xx_Library/APM32F4xx_StdPeriphDriver/src/apm32f4xx_rcm.o
RCM_DisableInterrupt                              ./libraries/APM32F4xx_Library/APM32F4xx_StdPeriphDriver/src/apm32f4xx_rcm.o
RCM_DisableLSI                                    ./libraries/APM32F4xx_Library/APM32F4xx_StdPeriphDriver/src/apm32f4xx_rcm.o
RCM_DisablePLL1                                   ./libraries/APM32F4xx_Library/APM32F4xx_StdPeriphDriver/src/apm32f4xx_rcm.o
RCM_DisablePLL2                                   ./libraries/APM32F4xx_Library/APM32F4xx_StdPeriphDriver/src/apm32f4xx_rcm.o
RCM_DisableRTCCLK                                 ./libraries/APM32F4xx_Library/APM32F4xx_StdPeriphDriver/src/apm32f4xx_rcm.o
RCM_EnableAHB1PeriphClock                         ./libraries/APM32F4xx_Library/APM32F4xx_StdPeriphDriver/src/apm32f4xx_rcm.o
                                                  ./board/board.o
                                                  ./libraries/Drivers/drv_gpio.o
RCM_EnableAHB1PeriphClockLPMode                   ./libraries/APM32F4xx_Library/APM32F4xx_StdPeriphDriver/src/apm32f4xx_rcm.o
RCM_EnableAHB1PeriphReset                         ./libraries/APM32F4xx_Library/APM32F4xx_StdPeriphDriver/src/apm32f4xx_rcm.o
                                                  ./libraries/APM32F4xx_Library/APM32F4xx_StdPeriphDriver/src/apm32f4xx_gpio.o
RCM_EnableAHB2PeriphClock                         ./libraries/APM32F4xx_Library/APM32F4xx_StdPeriphDriver/src/apm32f4xx_rcm.o
RCM_EnableAHB2PeriphClockLPMode                   ./libraries/APM32F4xx_Library/APM32F4xx_StdPeriphDriver/src/apm32f4xx_rcm.o
RCM_EnableAHB2PeriphReset                         ./libraries/APM32F4xx_Library/APM32F4xx_StdPeriphDriver/src/apm32f4xx_rcm.o
RCM_EnableAPB1PeriphClock                         ./libraries/APM32F4xx_Library/APM32F4xx_StdPeriphDriver/src/apm32f4xx_rcm.o
RCM_EnableAPB1PeriphClockLPMode                   ./libraries/APM32F4xx_Library/APM32F4xx_StdPeriphDriver/src/apm32f4xx_rcm.o
RCM_EnableAPB1PeriphReset                         ./libraries/APM32F4xx_Library/APM32F4xx_StdPeriphDriver/src/apm32f4xx_rcm.o
                                                  ./libraries/APM32F4xx_Library/APM32F4xx_StdPeriphDriver/src/apm32f4xx_usart.o
RCM_EnableAPB2PeriphClock                         ./libraries/APM32F4xx_Library/APM32F4xx_StdPeriphDriver/src/apm32f4xx_rcm.o
                                                  ./board/board.o
RCM_EnableAPB2PeriphClockLPMode                   ./libraries/APM32F4xx_Library/APM32F4xx_StdPeriphDriver/src/apm32f4xx_rcm.o
RCM_EnableAPB2PeriphReset                         ./libraries/APM32F4xx_Library/APM32F4xx_StdPeriphDriver/src/apm32f4xx_rcm.o
                                                  ./libraries/APM32F4xx_Library/APM32F4xx_StdPeriphDriver/src/apm32f4xx_usart.o
RCM_EnableBackupReset                             ./libraries/APM32F4xx_Library/APM32F4xx_StdPeriphDriver/src/apm32f4xx_rcm.o
RCM_EnableCSS                                     ./libraries/APM32F4xx_Library/APM32F4xx_StdPeriphDriver/src/apm32f4xx_rcm.o
RCM_EnableHSI                                     ./libraries/APM32F4xx_Library/APM32F4xx_StdPeriphDriver/src/apm32f4xx_rcm.o
RCM_EnableInterrupt                               ./libraries/APM32F4xx_Library/APM32F4xx_StdPeriphDriver/src/apm32f4xx_rcm.o
RCM_EnableLSI                                     ./libraries/APM32F4xx_Library/APM32F4xx_StdPeriphDriver/src/apm32f4xx_rcm.o
RCM_EnablePLL1                                    ./libraries/APM32F4xx_Library/APM32F4xx_StdPeriphDriver/src/apm32f4xx_rcm.o
RCM_EnablePLL2                                    ./libraries/APM32F4xx_Library/APM32F4xx_StdPeriphDriver/src/apm32f4xx_rcm.o
RCM_EnableRTCCLK                                  ./libraries/APM32F4xx_Library/APM32F4xx_StdPeriphDriver/src/apm32f4xx_rcm.o
RCM_IRQHandler                                    ./libraries/APM32F4xx_Library/Device/Geehy/APM32F4xx/Source/gcc/startup_apm32f40x.o
RCM_ReadHCLKFreq                                  ./libraries/APM32F4xx_Library/APM32F4xx_StdPeriphDriver/src/apm32f4xx_rcm.o
                                                  ./libraries/Drivers/drv_common.o
RCM_ReadIntFlag                                   ./libraries/APM32F4xx_Library/APM32F4xx_StdPeriphDriver/src/apm32f4xx_rcm.o
RCM_ReadPCLKFreq                                  ./libraries/APM32F4xx_Library/APM32F4xx_StdPeriphDriver/src/apm32f4xx_rcm.o
                                                  ./libraries/APM32F4xx_Library/APM32F4xx_StdPeriphDriver/src/apm32f4xx_usart.o
RCM_ReadSYSCLKFreq                                ./libraries/APM32F4xx_Library/APM32F4xx_StdPeriphDriver/src/apm32f4xx_rcm.o
                                                  ./applications/main.o
RCM_ReadSYSCLKSource                              ./libraries/APM32F4xx_Library/APM32F4xx_StdPeriphDriver/src/apm32f4xx_rcm.o
RCM_ReadStatusFlag                                ./libraries/APM32F4xx_Library/APM32F4xx_StdPeriphDriver/src/apm32f4xx_rcm.o
RCM_Reset                                         ./libraries/APM32F4xx_Library/APM32F4xx_StdPeriphDriver/src/apm32f4xx_rcm.o
RCM_WaitHSEReady                                  ./libraries/APM32F4xx_Library/APM32F4xx_StdPeriphDriver/src/apm32f4xx_rcm.o
RTC_Alarm_IRQHandler                              ./libraries/APM32F4xx_Library/Device/Geehy/APM32F4xx/Source/gcc/startup_apm32f40x.o
RTC_WKUP_IRQHandler                               ./libraries/APM32F4xx_Library/Device/Geehy/APM32F4xx/Source/gcc/startup_apm32f40x.o
Reset_Handler                                     ./libraries/APM32F4xx_Library/Device/Geehy/APM32F4xx/Source/gcc/startup_apm32f40x.o
SDIO_IRQHandler                                   ./libraries/APM32F4xx_Library/Device/Geehy/APM32F4xx/Source/gcc/startup_apm32f40x.o
SM3_IRQHandler                                    ./libraries/APM32F4xx_Library/Device/Geehy/APM32F4xx/Source/gcc/startup_apm32f40x.o
SM4_IRQHandler                                    ./libraries/APM32F4xx_Library/Device/Geehy/APM32F4xx/Source/gcc/startup_apm32f40x.o
SPI1_IRQHandler                                   ./libraries/APM32F4xx_Library/Device/Geehy/APM32F4xx/Source/gcc/startup_apm32f40x.o
SPI2_IRQHandler                                   ./libraries/APM32F4xx_Library/Device/Geehy/APM32F4xx/Source/gcc/startup_apm32f40x.o
SPI3_IRQHandler                                   ./libraries/APM32F4xx_Library/Device/Geehy/APM32F4xx/Source/gcc/startup_apm32f40x.o
SVC_Handler                                       ./libraries/APM32F4xx_Library/Device/Geehy/APM32F4xx/Source/gcc/startup_apm32f40x.o
SysTick_ConfigCLKSource                           ./libraries/APM32F4xx_Library/APM32F4xx_StdPeriphDriver/src/apm32f4xx_misc.o
SysTick_Handler                                   ./libraries/Drivers/drv_common.o
SystemCoreClock                                   ./libraries/APM32F4xx_Library/Device/Geehy/APM32F4xx/Source/system_apm32f4xx.o
SystemCoreClockUpdate                             ./libraries/APM32F4xx_Library/Device/Geehy/APM32F4xx/Source/system_apm32f4xx.o
SystemInit                                        ./libraries/APM32F4xx_Library/Device/Geehy/APM32F4xx/Source/system_apm32f4xx.o
                                                  ./libraries/APM32F4xx_Library/Device/Geehy/APM32F4xx/Source/gcc/startup_apm32f40x.o
TAMP_STAMP_IRQHandler                             ./libraries/APM32F4xx_Library/Device/Geehy/APM32F4xx/Source/gcc/startup_apm32f40x.o
TMR1_BRK_TMR9_IRQHandler                          ./libraries/APM32F4xx_Library/Device/Geehy/APM32F4xx/Source/gcc/startup_apm32f40x.o
TMR1_CC_IRQHandler                                ./libraries/APM32F4xx_Library/Device/Geehy/APM32F4xx/Source/gcc/startup_apm32f40x.o
TMR1_TRG_COM_TMR11_IRQHandler                     ./libraries/APM32F4xx_Library/Device/Geehy/APM32F4xx/Source/gcc/startup_apm32f40x.o
TMR1_UP_TMR10_IRQHandler                          ./libraries/APM32F4xx_Library/Device/Geehy/APM32F4xx/Source/gcc/startup_apm32f40x.o
TMR2_IRQHandler                                   ./libraries/APM32F4xx_Library/Device/Geehy/APM32F4xx/Source/gcc/startup_apm32f40x.o
TMR3_IRQHandler                                   ./libraries/APM32F4xx_Library/Device/Geehy/APM32F4xx/Source/gcc/startup_apm32f40x.o
TMR4_IRQHandler                                   ./libraries/APM32F4xx_Library/Device/Geehy/APM32F4xx/Source/gcc/startup_apm32f40x.o
TMR5_IRQHandler                                   ./libraries/APM32F4xx_Library/Device/Geehy/APM32F4xx/Source/gcc/startup_apm32f40x.o
TMR6_DAC_IRQHandler                               ./libraries/APM32F4xx_Library/Device/Geehy/APM32F4xx/Source/gcc/startup_apm32f40x.o
TMR7_IRQHandler                                   ./libraries/APM32F4xx_Library/Device/Geehy/APM32F4xx/Source/gcc/startup_apm32f40x.o
TMR8_BRK_TMR12_IRQHandler                         ./libraries/APM32F4xx_Library/Device/Geehy/APM32F4xx/Source/gcc/startup_apm32f40x.o
TMR8_CC_IRQHandler                                ./libraries/APM32F4xx_Library/Device/Geehy/APM32F4xx/Source/gcc/startup_apm32f40x.o
TMR8_TRG_COM_TMR14_IRQHandler                     ./libraries/APM32F4xx_Library/Device/Geehy/APM32F4xx/Source/gcc/startup_apm32f40x.o
TMR8_UP_TMR13_IRQHandler                          ./libraries/APM32F4xx_Library/Device/Geehy/APM32F4xx/Source/gcc/startup_apm32f40x.o
UART4_IRQHandler                                  ./libraries/APM32F4xx_Library/Device/Geehy/APM32F4xx/Source/gcc/startup_apm32f40x.o
UART5_IRQHandler                                  ./libraries/APM32F4xx_Library/Device/Geehy/APM32F4xx/Source/gcc/startup_apm32f40x.o
USART1_IRQHandler                                 ./libraries/Drivers/drv_usart.o
USART2_IRQHandler                                 ./libraries/APM32F4xx_Library/Device/Geehy/APM32F4xx/Source/gcc/startup_apm32f40x.o
USART3_IRQHandler                                 ./libraries/APM32F4xx_Library/Device/Geehy/APM32F4xx/Source/gcc/startup_apm32f40x.o
USART6_IRQHandler                                 ./libraries/APM32F4xx_Library/Device/Geehy/APM32F4xx/Source/gcc/startup_apm32f40x.o
USART_Address                                     ./libraries/APM32F4xx_Library/APM32F4xx_StdPeriphDriver/src/apm32f4xx_usart.o
USART_ClearIntFlag                                ./libraries/APM32F4xx_Library/APM32F4xx_StdPeriphDriver/src/apm32f4xx_usart.o
                                                  ./libraries/Drivers/drv_usart.o
USART_ClearStatusFlag                             ./libraries/APM32F4xx_Library/APM32F4xx_StdPeriphDriver/src/apm32f4xx_usart.o
                                                  ./libraries/Drivers/drv_usart.o
USART_Config                                      ./libraries/APM32F4xx_Library/APM32F4xx_StdPeriphDriver/src/apm32f4xx_usart.o
                                                  ./libraries/Drivers/drv_usart.o
USART_ConfigClock                                 ./libraries/APM32F4xx_Library/APM32F4xx_StdPeriphDriver/src/apm32f4xx_usart.o
USART_ConfigClockStructInit                       ./libraries/APM32F4xx_Library/APM32F4xx_StdPeriphDriver/src/apm32f4xx_usart.o
USART_ConfigGuardTime                             ./libraries/APM32F4xx_Library/APM32F4xx_StdPeriphDriver/src/apm32f4xx_usart.o
USART_ConfigIrDA                                  ./libraries/APM32F4xx_Library/APM32F4xx_StdPeriphDriver/src/apm32f4xx_usart.o
USART_ConfigLINBreakDetectLength                  ./libraries/APM32F4xx_Library/APM32F4xx_StdPeriphDriver/src/apm32f4xx_usart.o
USART_ConfigPrescaler                             ./libraries/APM32F4xx_Library/APM32F4xx_StdPeriphDriver/src/apm32f4xx_usart.o
USART_ConfigStructInit                            ./libraries/APM32F4xx_Library/APM32F4xx_StdPeriphDriver/src/apm32f4xx_usart.o
USART_ConfigWakeUp                                ./libraries/APM32F4xx_Library/APM32F4xx_StdPeriphDriver/src/apm32f4xx_usart.o
USART_Disable                                     ./libraries/APM32F4xx_Library/APM32F4xx_StdPeriphDriver/src/apm32f4xx_usart.o
USART_DisableDMA                                  ./libraries/APM32F4xx_Library/APM32F4xx_StdPeriphDriver/src/apm32f4xx_usart.o
USART_DisableHalfDuplex                           ./libraries/APM32F4xx_Library/APM32F4xx_StdPeriphDriver/src/apm32f4xx_usart.o
USART_DisableInterrupt                            ./libraries/APM32F4xx_Library/APM32F4xx_StdPeriphDriver/src/apm32f4xx_usart.o
                                                  ./libraries/Drivers/drv_usart.o
USART_DisableIrDA                                 ./libraries/APM32F4xx_Library/APM32F4xx_StdPeriphDriver/src/apm32f4xx_usart.o
USART_DisableLIN                                  ./libraries/APM32F4xx_Library/APM32F4xx_StdPeriphDriver/src/apm32f4xx_usart.o
USART_DisableMuteMode                             ./libraries/APM32F4xx_Library/APM32F4xx_StdPeriphDriver/src/apm32f4xx_usart.o
USART_DisableOverSampling                         ./libraries/APM32F4xx_Library/APM32F4xx_StdPeriphDriver/src/apm32f4xx_usart.o
USART_DisableOverSampling8                        ./libraries/APM32F4xx_Library/APM32F4xx_StdPeriphDriver/src/apm32f4xx_usart.o
USART_DisableSmartCard                            ./libraries/APM32F4xx_Library/APM32F4xx_StdPeriphDriver/src/apm32f4xx_usart.o
USART_DisableSmartCardNACK                        ./libraries/APM32F4xx_Library/APM32F4xx_StdPeriphDriver/src/apm32f4xx_usart.o
USART_Enable                                      ./libraries/APM32F4xx_Library/APM32F4xx_StdPeriphDriver/src/apm32f4xx_usart.o
                                                  ./libraries/Drivers/drv_usart.o
USART_EnableDMA                                   ./libraries/APM32F4xx_Library/APM32F4xx_StdPeriphDriver/src/apm32f4xx_usart.o
USART_EnableHalfDuplex                            ./libraries/APM32F4xx_Library/APM32F4xx_StdPeriphDriver/src/apm32f4xx_usart.o
USART_EnableInterrupt                             ./libraries/APM32F4xx_Library/APM32F4xx_StdPeriphDriver/src/apm32f4xx_usart.o
                                                  ./libraries/Drivers/drv_usart.o
USART_EnableIrDA                                  ./libraries/APM32F4xx_Library/APM32F4xx_StdPeriphDriver/src/apm32f4xx_usart.o
USART_EnableLIN                                   ./libraries/APM32F4xx_Library/APM32F4xx_StdPeriphDriver/src/apm32f4xx_usart.o
USART_EnableMuteMode                              ./libraries/APM32F4xx_Library/APM32F4xx_StdPeriphDriver/src/apm32f4xx_usart.o
USART_EnableOverSampling                          ./libraries/APM32F4xx_Library/APM32F4xx_StdPeriphDriver/src/apm32f4xx_usart.o
USART_EnableOverSampling8                         ./libraries/APM32F4xx_Library/APM32F4xx_StdPeriphDriver/src/apm32f4xx_usart.o
USART_EnableSmartCard                             ./libraries/APM32F4xx_Library/APM32F4xx_StdPeriphDriver/src/apm32f4xx_usart.o
USART_EnableSmartCardNACK                         ./libraries/APM32F4xx_Library/APM32F4xx_StdPeriphDriver/src/apm32f4xx_usart.o
USART_ReadIntFlag                                 ./libraries/APM32F4xx_Library/APM32F4xx_StdPeriphDriver/src/apm32f4xx_usart.o
                                                  ./libraries/Drivers/drv_usart.o
USART_ReadStatusFlag                              ./libraries/APM32F4xx_Library/APM32F4xx_StdPeriphDriver/src/apm32f4xx_usart.o
                                                  ./libraries/Drivers/drv_usart.o
USART_Reset                                       ./libraries/APM32F4xx_Library/APM32F4xx_StdPeriphDriver/src/apm32f4xx_usart.o
USART_RxData                                      ./libraries/APM32F4xx_Library/APM32F4xx_StdPeriphDriver/src/apm32f4xx_usart.o
                                                  ./libraries/Drivers/drv_usart.o
USART_TxBreak                                     ./libraries/APM32F4xx_Library/APM32F4xx_StdPeriphDriver/src/apm32f4xx_usart.o
USART_TxData                                      ./libraries/APM32F4xx_Library/APM32F4xx_StdPeriphDriver/src/apm32f4xx_usart.o
                                                  ./libraries/Drivers/drv_usart.o
UsageFault_Handler                                ./libraries/APM32F4xx_Library/Device/Geehy/APM32F4xx/Source/gcc/startup_apm32f40x.o
WWDT_IRQHandler                                   ./libraries/APM32F4xx_Library/Device/Geehy/APM32F4xx/Source/gcc/startup_apm32f40x.o
_Jv_RegisterClasses                               c:/rt-threadstudio/repo/extract/toolchain_support_packages/arm/gnu_tools_for_arm_embedded_processors/5.4.1/bin/../lib/gcc/arm-none-eabi/5.4.1/armv7e-m/fpu/crtbegin.o
_PathLocale                                       c:/rt-threadstudio/repo/extract/toolchain_support_packages/arm/gnu_tools_for_arm_embedded_processors/5.4.1/bin/../lib/gcc/arm-none-eabi/5.4.1/../../../../arm-none-eabi/lib/armv7e-m/fpu\libc.a(lib_a-locale.o)
__adddf3                                          c:/rt-threadstudio/repo/extract/toolchain_support_packages/arm/gnu_tools_for_arm_embedded_processors/5.4.1/bin/../lib/gcc/arm-none-eabi/5.4.1/armv7e-m/fpu\libgcc.a(_arm_addsubdf3.o)
__aeabi_dadd                                      c:/rt-threadstudio/repo/extract/toolchain_support_packages/arm/gnu_tools_for_arm_embedded_processors/5.4.1/bin/../lib/gcc/arm-none-eabi/5.4.1/armv7e-m/fpu\libgcc.a(_arm_addsubdf3.o)
__aeabi_drsub                                     c:/rt-threadstudio/repo/extract/toolchain_support_packages/arm/gnu_tools_for_arm_embedded_processors/5.4.1/bin/../lib/gcc/arm-none-eabi/5.4.1/armv7e-m/fpu\libgcc.a(_arm_addsubdf3.o)
__aeabi_dsub                                      c:/rt-threadstudio/repo/extract/toolchain_support_packages/arm/gnu_tools_for_arm_embedded_processors/5.4.1/bin/../lib/gcc/arm-none-eabi/5.4.1/armv7e-m/fpu\libgcc.a(_arm_addsubdf3.o)
__aeabi_f2d                                       c:/rt-threadstudio/repo/extract/toolchain_support_packages/arm/gnu_tools_for_arm_embedded_processors/5.4.1/bin/../lib/gcc/arm-none-eabi/5.4.1/armv7e-m/fpu\libgcc.a(_arm_addsubdf3.o)
__aeabi_i2d                                       c:/rt-threadstudio/repo/extract/toolchain_support_packages/arm/gnu_tools_for_arm_embedded_processors/5.4.1/bin/../lib/gcc/arm-none-eabi/5.4.1/armv7e-m/fpu\libgcc.a(_arm_addsubdf3.o)
                                                  ./rt-thread/components/libc/compilers/common/ctime.o
__aeabi_l2d                                       c:/rt-threadstudio/repo/extract/toolchain_support_packages/arm/gnu_tools_for_arm_embedded_processors/5.4.1/bin/../lib/gcc/arm-none-eabi/5.4.1/armv7e-m/fpu\libgcc.a(_arm_addsubdf3.o)
__aeabi_ui2d                                      c:/rt-threadstudio/repo/extract/toolchain_support_packages/arm/gnu_tools_for_arm_embedded_processors/5.4.1/bin/../lib/gcc/arm-none-eabi/5.4.1/armv7e-m/fpu\libgcc.a(_arm_addsubdf3.o)
__aeabi_ul2d                                      c:/rt-threadstudio/repo/extract/toolchain_support_packages/arm/gnu_tools_for_arm_embedded_processors/5.4.1/bin/../lib/gcc/arm-none-eabi/5.4.1/armv7e-m/fpu\libgcc.a(_arm_addsubdf3.o)
__ascii_mbtowc                                    c:/rt-threadstudio/repo/extract/toolchain_support_packages/arm/gnu_tools_for_arm_embedded_processors/5.4.1/bin/../lib/gcc/arm-none-eabi/5.4.1/../../../../arm-none-eabi/lib/armv7e-m/fpu\libc.a(lib_a-mbtowc_r.o)
                                                  c:/rt-threadstudio/repo/extract/toolchain_support_packages/arm/gnu_tools_for_arm_embedded_processors/5.4.1/bin/../lib/gcc/arm-none-eabi/5.4.1/../../../../arm-none-eabi/lib/armv7e-m/fpu\libc.a(lib_a-locale.o)
__ascii_wctomb                                    c:/rt-threadstudio/repo/extract/toolchain_support_packages/arm/gnu_tools_for_arm_embedded_processors/5.4.1/bin/../lib/gcc/arm-none-eabi/5.4.1/../../../../arm-none-eabi/lib/armv7e-m/fpu\libc.a(lib_a-wctomb_r.o)
                                                  c:/rt-threadstudio/repo/extract/toolchain_support_packages/arm/gnu_tools_for_arm_embedded_processors/5.4.1/bin/../lib/gcc/arm-none-eabi/5.4.1/../../../../arm-none-eabi/lib/armv7e-m/fpu\libc.a(lib_a-locale.o)
__bss_end                                         ./libraries/Drivers/drv_common.o
__bss_end__                                       c:/rt-threadstudio/repo/extract/toolchain_support_packages/arm/gnu_tools_for_arm_embedded_processors/5.4.1/bin/../lib/gcc/arm-none-eabi/5.4.1/../../../../arm-none-eabi/lib/armv7e-m/fpu/crt0.o
__bss_start__                                     c:/rt-threadstudio/repo/extract/toolchain_support_packages/arm/gnu_tools_for_arm_embedded_processors/5.4.1/bin/../lib/gcc/arm-none-eabi/5.4.1/../../../../arm-none-eabi/lib/armv7e-m/fpu/crt0.o
__call_exitprocs                                  c:/rt-threadstudio/repo/extract/toolchain_support_packages/arm/gnu_tools_for_arm_embedded_processors/5.4.1/bin/../lib/gcc/arm-none-eabi/5.4.1/../../../../arm-none-eabi/lib/armv7e-m/fpu\libc.a(lib_a-__call_atexit.o)
                                                  c:/rt-threadstudio/repo/extract/toolchain_support_packages/arm/gnu_tools_for_arm_embedded_processors/5.4.1/bin/../lib/gcc/arm-none-eabi/5.4.1/../../../../arm-none-eabi/lib/armv7e-m/fpu\libc.a(lib_a-exit.o)
__deregister_frame_info                           c:/rt-threadstudio/repo/extract/toolchain_support_packages/arm/gnu_tools_for_arm_embedded_processors/5.4.1/bin/../lib/gcc/arm-none-eabi/5.4.1/armv7e-m/fpu/crtbegin.o
__div0                                            ./rt-thread/libcpu/arm/common/div0.o
__dso_handle                                      c:/rt-threadstudio/repo/extract/toolchain_support_packages/arm/gnu_tools_for_arm_embedded_processors/5.4.1/bin/../lib/gcc/arm-none-eabi/5.4.1/armv7e-m/fpu/crtbegin.o
__errno                                           ./rt-thread/components/libc/compilers/newlib/syscalls.o
__extendsfdf2                                     c:/rt-threadstudio/repo/extract/toolchain_support_packages/arm/gnu_tools_for_arm_embedded_processors/5.4.1/bin/../lib/gcc/arm-none-eabi/5.4.1/armv7e-m/fpu\libgcc.a(_arm_addsubdf3.o)
__fini_array_end                                  c:/rt-threadstudio/repo/extract/toolchain_support_packages/arm/gnu_tools_for_arm_embedded_processors/5.4.1/bin/../lib/gcc/arm-none-eabi/5.4.1/../../../../arm-none-eabi/lib/armv7e-m/fpu\libc.a(lib_a-fini.o)
__fini_array_start                                c:/rt-threadstudio/repo/extract/toolchain_support_packages/arm/gnu_tools_for_arm_embedded_processors/5.4.1/bin/../lib/gcc/arm-none-eabi/5.4.1/../../../../arm-none-eabi/lib/armv7e-m/fpu\libc.a(lib_a-fini.o)
__floatdidf                                       c:/rt-threadstudio/repo/extract/toolchain_support_packages/arm/gnu_tools_for_arm_embedded_processors/5.4.1/bin/../lib/gcc/arm-none-eabi/5.4.1/armv7e-m/fpu\libgcc.a(_arm_addsubdf3.o)
__floatsidf                                       c:/rt-threadstudio/repo/extract/toolchain_support_packages/arm/gnu_tools_for_arm_embedded_processors/5.4.1/bin/../lib/gcc/arm-none-eabi/5.4.1/armv7e-m/fpu\libgcc.a(_arm_addsubdf3.o)
__floatundidf                                     c:/rt-threadstudio/repo/extract/toolchain_support_packages/arm/gnu_tools_for_arm_embedded_processors/5.4.1/bin/../lib/gcc/arm-none-eabi/5.4.1/armv7e-m/fpu\libgcc.a(_arm_addsubdf3.o)
__floatunsidf                                     c:/rt-threadstudio/repo/extract/toolchain_support_packages/arm/gnu_tools_for_arm_embedded_processors/5.4.1/bin/../lib/gcc/arm-none-eabi/5.4.1/armv7e-m/fpu\libgcc.a(_arm_addsubdf3.o)
__fsym_cat                                        ./rt-thread/components/finsh/msh_file.o
__fsym_cat_desc                                   ./rt-thread/components/finsh/msh_file.o
__fsym_cat_name                                   ./rt-thread/components/finsh/msh_file.o
__fsym_cd                                         ./rt-thread/components/finsh/msh_file.o
__fsym_cd_desc                                    ./rt-thread/components/finsh/msh_file.o
__fsym_cd_name                                    ./rt-thread/components/finsh/msh_file.o
__fsym_clear                                      ./rt-thread/components/finsh/cmd.o
__fsym_clear_desc                                 ./rt-thread/components/finsh/cmd.o
__fsym_clear_name                                 ./rt-thread/components/finsh/cmd.o
__fsym_cp                                         ./rt-thread/components/finsh/msh_file.o
__fsym_cp_desc                                    ./rt-thread/components/finsh/msh_file.o
__fsym_cp_name                                    ./rt-thread/components/finsh/msh_file.o
__fsym_df                                         ./rt-thread/components/finsh/msh_file.o
__fsym_df_desc                                    ./rt-thread/components/finsh/msh_file.o
__fsym_df_name                                    ./rt-thread/components/finsh/msh_file.o
__fsym_echo                                       ./rt-thread/components/finsh/msh_file.o
__fsym_echo_desc                                  ./rt-thread/components/finsh/msh_file.o
__fsym_echo_name                                  ./rt-thread/components/finsh/msh_file.o
__fsym_free                                       ./rt-thread/components/finsh/msh.o
__fsym_free_desc                                  ./rt-thread/components/finsh/msh.o
__fsym_free_name                                  ./rt-thread/components/finsh/msh.o
__fsym_help                                       ./rt-thread/components/finsh/msh.o
__fsym_help_desc                                  ./rt-thread/components/finsh/msh.o
__fsym_help_name                                  ./rt-thread/components/finsh/msh.o
__fsym_list                                       ./rt-thread/components/finsh/cmd.o
__fsym_list_desc                                  ./rt-thread/components/finsh/cmd.o
__fsym_list_device                                ./rt-thread/components/finsh/cmd.o
__fsym_list_device_desc                           ./rt-thread/components/finsh/cmd.o
__fsym_list_device_name                           ./rt-thread/components/finsh/cmd.o
__fsym_list_event                                 ./rt-thread/components/finsh/cmd.o
__fsym_list_event_desc                            ./rt-thread/components/finsh/cmd.o
__fsym_list_event_name                            ./rt-thread/components/finsh/cmd.o
__fsym_list_fd                                    ./rt-thread/components/dfs/src/dfs.o
__fsym_list_fd_desc                               ./rt-thread/components/dfs/src/dfs.o
__fsym_list_fd_name                               ./rt-thread/components/dfs/src/dfs.o
__fsym_list_mailbox                               ./rt-thread/components/finsh/cmd.o
__fsym_list_mailbox_desc                          ./rt-thread/components/finsh/cmd.o
__fsym_list_mailbox_name                          ./rt-thread/components/finsh/cmd.o
__fsym_list_mempool                               ./rt-thread/components/finsh/cmd.o
__fsym_list_mempool_desc                          ./rt-thread/components/finsh/cmd.o
__fsym_list_mempool_name                          ./rt-thread/components/finsh/cmd.o
__fsym_list_msgqueue                              ./rt-thread/components/finsh/cmd.o
__fsym_list_msgqueue_desc                         ./rt-thread/components/finsh/cmd.o
__fsym_list_msgqueue_name                         ./rt-thread/components/finsh/cmd.o
__fsym_list_mutex                                 ./rt-thread/components/finsh/cmd.o
__fsym_list_mutex_desc                            ./rt-thread/components/finsh/cmd.o
__fsym_list_mutex_name                            ./rt-thread/components/finsh/cmd.o
__fsym_list_name                                  ./rt-thread/components/finsh/cmd.o
__fsym_list_sem                                   ./rt-thread/components/finsh/cmd.o
__fsym_list_sem_desc                              ./rt-thread/components/finsh/cmd.o
__fsym_list_sem_name                              ./rt-thread/components/finsh/cmd.o
__fsym_list_thread                                ./rt-thread/components/finsh/cmd.o
__fsym_list_thread_desc                           ./rt-thread/components/finsh/cmd.o
__fsym_list_thread_name                           ./rt-thread/components/finsh/cmd.o
__fsym_list_timer                                 ./rt-thread/components/finsh/cmd.o
__fsym_list_timer_desc                            ./rt-thread/components/finsh/cmd.o
__fsym_list_timer_name                            ./rt-thread/components/finsh/cmd.o
__fsym_ls                                         ./rt-thread/components/finsh/msh_file.o
__fsym_ls_desc                                    ./rt-thread/components/finsh/msh_file.o
__fsym_ls_name                                    ./rt-thread/components/finsh/msh_file.o
__fsym_mkdir                                      ./rt-thread/components/finsh/msh_file.o
__fsym_mkdir_desc                                 ./rt-thread/components/finsh/msh_file.o
__fsym_mkdir_name                                 ./rt-thread/components/finsh/msh_file.o
__fsym_mkfs                                       ./rt-thread/components/finsh/msh_file.o
__fsym_mkfs_desc                                  ./rt-thread/components/finsh/msh_file.o
__fsym_mkfs_name                                  ./rt-thread/components/finsh/msh_file.o
__fsym_mount                                      ./rt-thread/components/finsh/msh_file.o
__fsym_mount_desc                                 ./rt-thread/components/finsh/msh_file.o
__fsym_mount_name                                 ./rt-thread/components/finsh/msh_file.o
__fsym_mv                                         ./rt-thread/components/finsh/msh_file.o
__fsym_mv_desc                                    ./rt-thread/components/finsh/msh_file.o
__fsym_mv_name                                    ./rt-thread/components/finsh/msh_file.o
__fsym_pin                                        ./rt-thread/components/drivers/misc/pin.o
__fsym_pin_desc                                   ./rt-thread/components/drivers/misc/pin.o
__fsym_pin_name                                   ./rt-thread/components/drivers/misc/pin.o
__fsym_ps                                         ./rt-thread/components/finsh/msh.o
__fsym_ps_desc                                    ./rt-thread/components/finsh/msh.o
__fsym_ps_name                                    ./rt-thread/components/finsh/msh.o
__fsym_pwd                                        ./rt-thread/components/finsh/msh_file.o
__fsym_pwd_desc                                   ./rt-thread/components/finsh/msh_file.o
__fsym_pwd_name                                   ./rt-thread/components/finsh/msh_file.o
__fsym_reboot                                     ./libraries/Drivers/drv_common.o
__fsym_reboot_desc                                ./libraries/Drivers/drv_common.o
__fsym_reboot_name                                ./libraries/Drivers/drv_common.o
__fsym_rm                                         ./rt-thread/components/finsh/msh_file.o
__fsym_rm_desc                                    ./rt-thread/components/finsh/msh_file.o
__fsym_rm_name                                    ./rt-thread/components/finsh/msh_file.o
__fsym_tail                                       ./rt-thread/components/finsh/msh_file.o
__fsym_tail_desc                                  ./rt-thread/components/finsh/msh_file.o
__fsym_tail_name                                  ./rt-thread/components/finsh/msh_file.o
__fsym_umount                                     ./rt-thread/components/finsh/msh_file.o
__fsym_umount_desc                                ./rt-thread/components/finsh/msh_file.o
__fsym_umount_name                                ./rt-thread/components/finsh/msh_file.o
__fsym_version                                    ./rt-thread/components/finsh/cmd.o
__fsym_version_desc                               ./rt-thread/components/finsh/cmd.o
__fsym_version_name                               ./rt-thread/components/finsh/cmd.o
__fsymtab_end                                     ./rt-thread/components/finsh/shell.o
__fsymtab_start                                   ./rt-thread/components/finsh/shell.o
__global_locale                                   c:/rt-threadstudio/repo/extract/toolchain_support_packages/arm/gnu_tools_for_arm_embedded_processors/5.4.1/bin/../lib/gcc/arm-none-eabi/5.4.1/../../../../arm-none-eabi/lib/armv7e-m/fpu\libc.a(lib_a-locale.o)
                                                  c:/rt-threadstudio/repo/extract/toolchain_support_packages/arm/gnu_tools_for_arm_embedded_processors/5.4.1/bin/../lib/gcc/arm-none-eabi/5.4.1/../../../../arm-none-eabi/lib/armv7e-m/fpu\libc.a(lib_a-wctomb_r.o)
                                                  c:/rt-threadstudio/repo/extract/toolchain_support_packages/arm/gnu_tools_for_arm_embedded_processors/5.4.1/bin/../lib/gcc/arm-none-eabi/5.4.1/../../../../arm-none-eabi/lib/armv7e-m/fpu\libc.a(lib_a-strtol.o)
                                                  c:/rt-threadstudio/repo/extract/toolchain_support_packages/arm/gnu_tools_for_arm_embedded_processors/5.4.1/bin/../lib/gcc/arm-none-eabi/5.4.1/../../../../arm-none-eabi/lib/armv7e-m/fpu\libc.a(lib_a-mbtowc_r.o)
__libc_fini                                       c:/rt-threadstudio/repo/extract/toolchain_support_packages/arm/gnu_tools_for_arm_embedded_processors/5.4.1/bin/../lib/gcc/arm-none-eabi/5.4.1/../../../../arm-none-eabi/lib/armv7e-m/fpu\libc.a(lib_a-__call_atexit.o)
__libc_fini_array                                 c:/rt-threadstudio/repo/extract/toolchain_support_packages/arm/gnu_tools_for_arm_embedded_processors/5.4.1/bin/../lib/gcc/arm-none-eabi/5.4.1/../../../../arm-none-eabi/lib/armv7e-m/fpu\libc.a(lib_a-fini.o)
                                                  c:/rt-threadstudio/repo/extract/toolchain_support_packages/arm/gnu_tools_for_arm_embedded_processors/5.4.1/bin/../lib/gcc/arm-none-eabi/5.4.1/../../../../arm-none-eabi/lib/armv7e-m/fpu\libc.a(lib_a-__call_atexit.o)
                                                  c:/rt-threadstudio/repo/extract/toolchain_support_packages/arm/gnu_tools_for_arm_embedded_processors/5.4.1/bin/../lib/gcc/arm-none-eabi/5.4.1/../../../../arm-none-eabi/lib/armv7e-m/fpu/crt0.o
__libc_init_array                                 ./rt-thread/components/libc/compilers/newlib/syscalls.o
                                                  c:/rt-threadstudio/repo/extract/toolchain_support_packages/arm/gnu_tools_for_arm_embedded_processors/5.4.1/bin/../lib/gcc/arm-none-eabi/5.4.1/../../../../arm-none-eabi/lib/armv7e-m/fpu/crt0.o
__locale_ctype_ptr                                c:/rt-threadstudio/repo/extract/toolchain_support_packages/arm/gnu_tools_for_arm_embedded_processors/5.4.1/bin/../lib/gcc/arm-none-eabi/5.4.1/../../../../arm-none-eabi/lib/armv7e-m/fpu\libc.a(lib_a-locale.o)
                                                  ./rt-thread/components/drivers/misc/pin.o
                                                  ./rt-thread/components/finsh/msh_parse.o
                                                  ./rt-thread/components/libc/compilers/common/cstring.o
__locale_ctype_ptr_l                              c:/rt-threadstudio/repo/extract/toolchain_support_packages/arm/gnu_tools_for_arm_embedded_processors/5.4.1/bin/../lib/gcc/arm-none-eabi/5.4.1/../../../../arm-none-eabi/lib/armv7e-m/fpu\libc.a(lib_a-locale.o)
                                                  c:/rt-threadstudio/repo/extract/toolchain_support_packages/arm/gnu_tools_for_arm_embedded_processors/5.4.1/bin/../lib/gcc/arm-none-eabi/5.4.1/../../../../arm-none-eabi/lib/armv7e-m/fpu\libc.a(lib_a-strtol.o)
__locale_mb_cur_max                               c:/rt-threadstudio/repo/extract/toolchain_support_packages/arm/gnu_tools_for_arm_embedded_processors/5.4.1/bin/../lib/gcc/arm-none-eabi/5.4.1/../../../../arm-none-eabi/lib/armv7e-m/fpu\libc.a(lib_a-locale.o)
__register_exitproc                               c:/rt-threadstudio/repo/extract/toolchain_support_packages/arm/gnu_tools_for_arm_embedded_processors/5.4.1/bin/../lib/gcc/arm-none-eabi/5.4.1/../../../../arm-none-eabi/lib/armv7e-m/fpu\libc.a(lib_a-__atexit.o)
                                                  c:/rt-threadstudio/repo/extract/toolchain_support_packages/arm/gnu_tools_for_arm_embedded_processors/5.4.1/bin/../lib/gcc/arm-none-eabi/5.4.1/../../../../arm-none-eabi/lib/armv7e-m/fpu\libc.a(lib_a-atexit.o)
__register_frame_info                             c:/rt-threadstudio/repo/extract/toolchain_support_packages/arm/gnu_tools_for_arm_embedded_processors/5.4.1/bin/../lib/gcc/arm-none-eabi/5.4.1/armv7e-m/fpu/crtbegin.o
__rt_ffs                                          ./rt-thread/libcpu/arm/cortex-m4/cpuport.o
                                                  ./rt-thread/src/scheduler.o
__rt_init_dfs_init                                ./rt-thread/components/dfs/src/dfs.o
__rt_init_finsh_system_init                       ./rt-thread/components/finsh/shell.o
__rt_init_rti_board_end                           ./rt-thread/src/components.o
__rt_init_rti_board_start                         ./rt-thread/src/components.o
__rt_init_rti_end                                 ./rt-thread/src/components.o
__rt_init_rti_start                               ./rt-thread/src/components.o
__rt_libc_exit                                    ./rt-thread/components/libc/compilers/common/cstdlib.o
                                                  ./rt-thread/components/libc/compilers/newlib/syscalls.o
__stack                                           c:/rt-threadstudio/repo/extract/toolchain_support_packages/arm/gnu_tools_for_arm_embedded_processors/5.4.1/bin/../lib/gcc/arm-none-eabi/5.4.1/../../../../arm-none-eabi/lib/armv7e-m/fpu/crt0.o
__subdf3                                          c:/rt-threadstudio/repo/extract/toolchain_support_packages/arm/gnu_tools_for_arm_embedded_processors/5.4.1/bin/../lib/gcc/arm-none-eabi/5.4.1/armv7e-m/fpu\libgcc.a(_arm_addsubdf3.o)
__wqueue_default_wake                             ./rt-thread/components/drivers/ipc/waitqueue.o
_atoi_r                                           c:/rt-threadstudio/repo/extract/toolchain_support_packages/arm/gnu_tools_for_arm_embedded_processors/5.4.1/bin/../lib/gcc/arm-none-eabi/5.4.1/../../../../arm-none-eabi/lib/armv7e-m/fpu\libc.a(lib_a-atoi.o)
_calloc_r                                         ./rt-thread/components/libc/compilers/newlib/syscalls.o
_close_r                                          ./rt-thread/components/libc/compilers/newlib/syscalls.o
_ctype_                                           c:/rt-threadstudio/repo/extract/toolchain_support_packages/arm/gnu_tools_for_arm_embedded_processors/5.4.1/bin/../lib/gcc/arm-none-eabi/5.4.1/../../../../arm-none-eabi/lib/armv7e-m/fpu\libc.a(lib_a-ctype_.o)
                                                  c:/rt-threadstudio/repo/extract/toolchain_support_packages/arm/gnu_tools_for_arm_embedded_processors/5.4.1/bin/../lib/gcc/arm-none-eabi/5.4.1/../../../../arm-none-eabi/lib/armv7e-m/fpu\libc.a(lib_a-locale.o)
_ebss                                             ./libraries/APM32F4xx_Library/Device/Geehy/APM32F4xx/Source/gcc/startup_apm32f40x.o
_edata                                            ./libraries/APM32F4xx_Library/Device/Geehy/APM32F4xx/Source/gcc/startup_apm32f40x.o
_estack                                           ./libraries/APM32F4xx_Library/Device/Geehy/APM32F4xx/Source/gcc/startup_apm32f40x.o
_execve_r                                         ./rt-thread/components/libc/compilers/newlib/syscalls.o
_exit                                             ./rt-thread/components/libc/compilers/newlib/syscalls.o
                                                  c:/rt-threadstudio/repo/extract/toolchain_support_packages/arm/gnu_tools_for_arm_embedded_processors/5.4.1/bin/../lib/gcc/arm-none-eabi/5.4.1/../../../../arm-none-eabi/lib/armv7e-m/fpu\libc.a(lib_a-exit.o)
_fcntl_r                                          ./rt-thread/components/libc/compilers/newlib/syscalls.o
_fini                                             c:/rt-threadstudio/repo/extract/toolchain_support_packages/arm/gnu_tools_for_arm_embedded_processors/5.4.1/bin/../lib/gcc/arm-none-eabi/5.4.1/armv7e-m/fpu/crti.o
                                                  c:/rt-threadstudio/repo/extract/toolchain_support_packages/arm/gnu_tools_for_arm_embedded_processors/5.4.1/bin/../lib/gcc/arm-none-eabi/5.4.1/../../../../arm-none-eabi/lib/armv7e-m/fpu\libc.a(lib_a-fini.o)
_fork_r                                           ./rt-thread/components/libc/compilers/newlib/syscalls.o
_free_r                                           ./rt-thread/components/libc/compilers/newlib/syscalls.o
                                                  c:/rt-threadstudio/repo/extract/toolchain_support_packages/arm/gnu_tools_for_arm_embedded_processors/5.4.1/bin/../lib/gcc/arm-none-eabi/5.4.1/../../../../arm-none-eabi/lib/armv7e-m/fpu\libc.a(lib_a-malloc.o)
_fstat_r                                          ./rt-thread/components/libc/compilers/newlib/syscalls.o
_getpid_r                                         ./rt-thread/components/libc/compilers/newlib/syscalls.o
_global_impure_ptr                                c:/rt-threadstudio/repo/extract/toolchain_support_packages/arm/gnu_tools_for_arm_embedded_processors/5.4.1/bin/../lib/gcc/arm-none-eabi/5.4.1/../../../../arm-none-eabi/lib/armv7e-m/fpu\libc.a(lib_a-impure.o)
                                                  c:/rt-threadstudio/repo/extract/toolchain_support_packages/arm/gnu_tools_for_arm_embedded_processors/5.4.1/bin/../lib/gcc/arm-none-eabi/5.4.1/../../../../arm-none-eabi/lib/armv7e-m/fpu\libc.a(lib_a-__atexit.o)
                                                  c:/rt-threadstudio/repo/extract/toolchain_support_packages/arm/gnu_tools_for_arm_embedded_processors/5.4.1/bin/../lib/gcc/arm-none-eabi/5.4.1/../../../../arm-none-eabi/lib/armv7e-m/fpu\libc.a(lib_a-__call_atexit.o)
                                                  c:/rt-threadstudio/repo/extract/toolchain_support_packages/arm/gnu_tools_for_arm_embedded_processors/5.4.1/bin/../lib/gcc/arm-none-eabi/5.4.1/../../../../arm-none-eabi/lib/armv7e-m/fpu\libc.a(lib_a-exit.o)
_impure_ptr                                       c:/rt-threadstudio/repo/extract/toolchain_support_packages/arm/gnu_tools_for_arm_embedded_processors/5.4.1/bin/../lib/gcc/arm-none-eabi/5.4.1/../../../../arm-none-eabi/lib/armv7e-m/fpu\libc.a(lib_a-impure.o)
                                                  c:/rt-threadstudio/repo/extract/toolchain_support_packages/arm/gnu_tools_for_arm_embedded_processors/5.4.1/bin/../lib/gcc/arm-none-eabi/5.4.1/../../../../arm-none-eabi/lib/armv7e-m/fpu\libc.a(lib_a-wctomb_r.o)
                                                  c:/rt-threadstudio/repo/extract/toolchain_support_packages/arm/gnu_tools_for_arm_embedded_processors/5.4.1/bin/../lib/gcc/arm-none-eabi/5.4.1/../../../../arm-none-eabi/lib/armv7e-m/fpu\libc.a(lib_a-strtol.o)
                                                  c:/rt-threadstudio/repo/extract/toolchain_support_packages/arm/gnu_tools_for_arm_embedded_processors/5.4.1/bin/../lib/gcc/arm-none-eabi/5.4.1/../../../../arm-none-eabi/lib/armv7e-m/fpu\libc.a(lib_a-mbtowc_r.o)
                                                  c:/rt-threadstudio/repo/extract/toolchain_support_packages/arm/gnu_tools_for_arm_embedded_processors/5.4.1/bin/../lib/gcc/arm-none-eabi/5.4.1/../../../../arm-none-eabi/lib/armv7e-m/fpu\libc.a(lib_a-malloc.o)
                                                  c:/rt-threadstudio/repo/extract/toolchain_support_packages/arm/gnu_tools_for_arm_embedded_processors/5.4.1/bin/../lib/gcc/arm-none-eabi/5.4.1/../../../../arm-none-eabi/lib/armv7e-m/fpu\libc.a(lib_a-locale.o)
_init                                             c:/rt-threadstudio/repo/extract/toolchain_support_packages/arm/gnu_tools_for_arm_embedded_processors/5.4.1/bin/../lib/gcc/arm-none-eabi/5.4.1/armv7e-m/fpu/crti.o
_isatty_r                                         ./rt-thread/components/libc/compilers/newlib/syscalls.o
_kill_r                                           ./rt-thread/components/libc/compilers/newlib/syscalls.o
_link_r                                           ./rt-thread/components/libc/compilers/newlib/syscalls.o
_lseek_r                                          ./rt-thread/components/libc/compilers/newlib/syscalls.o
_mainCRTStartup                                   c:/rt-threadstudio/repo/extract/toolchain_support_packages/arm/gnu_tools_for_arm_embedded_processors/5.4.1/bin/../lib/gcc/arm-none-eabi/5.4.1/../../../../arm-none-eabi/lib/armv7e-m/fpu/crt0.o
_malloc_r                                         ./rt-thread/components/libc/compilers/newlib/syscalls.o
                                                  c:/rt-threadstudio/repo/extract/toolchain_support_packages/arm/gnu_tools_for_arm_embedded_processors/5.4.1/bin/../lib/gcc/arm-none-eabi/5.4.1/../../../../arm-none-eabi/lib/armv7e-m/fpu\libc.a(lib_a-malloc.o)
_mbtowc_r                                         c:/rt-threadstudio/repo/extract/toolchain_support_packages/arm/gnu_tools_for_arm_embedded_processors/5.4.1/bin/../lib/gcc/arm-none-eabi/5.4.1/../../../../arm-none-eabi/lib/armv7e-m/fpu\libc.a(lib_a-mbtowc_r.o)
_mkdir_r                                          ./rt-thread/components/libc/compilers/newlib/syscalls.o
_open_r                                           ./rt-thread/components/libc/compilers/newlib/syscalls.o
_read_r                                           ./rt-thread/components/libc/compilers/newlib/syscalls.o
_realloc_r                                        ./rt-thread/components/libc/compilers/newlib/syscalls.o
_rename_r                                         ./rt-thread/components/libc/compilers/newlib/syscalls.o
_rt_errno                                         ./rt-thread/src/kservice.o
                                                  ./rt-thread/components/libc/compilers/newlib/syscalls.o
_sbss                                             ./libraries/APM32F4xx_Library/Device/Geehy/APM32F4xx/Source/gcc/startup_apm32f40x.o
_sdata                                            ./libraries/APM32F4xx_Library/Device/Geehy/APM32F4xx/Source/gcc/startup_apm32f40x.o
_setlocale_r                                      c:/rt-threadstudio/repo/extract/toolchain_support_packages/arm/gnu_tools_for_arm_embedded_processors/5.4.1/bin/../lib/gcc/arm-none-eabi/5.4.1/../../../../arm-none-eabi/lib/armv7e-m/fpu\libc.a(lib_a-locale.o)
_sidata                                           ./libraries/APM32F4xx_Library/Device/Geehy/APM32F4xx/Source/gcc/startup_apm32f40x.o
_start                                            c:/rt-threadstudio/repo/extract/toolchain_support_packages/arm/gnu_tools_for_arm_embedded_processors/5.4.1/bin/../lib/gcc/arm-none-eabi/5.4.1/../../../../arm-none-eabi/lib/armv7e-m/fpu/crt0.o
_stat_r                                           ./rt-thread/components/libc/compilers/newlib/syscalls.o
_strtol_r                                         c:/rt-threadstudio/repo/extract/toolchain_support_packages/arm/gnu_tools_for_arm_embedded_processors/5.4.1/bin/../lib/gcc/arm-none-eabi/5.4.1/../../../../arm-none-eabi/lib/armv7e-m/fpu\libc.a(lib_a-strtol.o)
                                                  c:/rt-threadstudio/repo/extract/toolchain_support_packages/arm/gnu_tools_for_arm_embedded_processors/5.4.1/bin/../lib/gcc/arm-none-eabi/5.4.1/../../../../arm-none-eabi/lib/armv7e-m/fpu\libc.a(lib_a-atoi.o)
_syscall_table_begin                              ./rt-thread/components/finsh/shell.o
                                                  ./rt-thread/components/finsh/msh.o
_syscall_table_end                                ./rt-thread/components/finsh/shell.o
                                                  ./rt-thread/components/finsh/msh.o
_unlink_r                                         ./rt-thread/components/libc/compilers/newlib/syscalls.o
_wait_r                                           ./rt-thread/components/libc/compilers/newlib/syscalls.o
_wctomb_r                                         c:/rt-threadstudio/repo/extract/toolchain_support_packages/arm/gnu_tools_for_arm_embedded_processors/5.4.1/bin/../lib/gcc/arm-none-eabi/5.4.1/../../../../arm-none-eabi/lib/armv7e-m/fpu\libc.a(lib_a-wctomb_r.o)
_write_r                                          ./rt-thread/components/libc/compilers/newlib/syscalls.o
access                                            ./rt-thread/components/dfs/src/dfs_posix.o
apm32_usart_init                                  ./board/board.o
                                                  ./libraries/Drivers/drv_usart.o
asctime                                           ./rt-thread/components/libc/compilers/common/ctime.o
asctime_r                                         ./rt-thread/components/libc/compilers/common/ctime.o
atexit                                            c:/rt-threadstudio/repo/extract/toolchain_support_packages/arm/gnu_tools_for_arm_embedded_processors/5.4.1/bin/../lib/gcc/arm-none-eabi/5.4.1/../../../../arm-none-eabi/lib/armv7e-m/fpu\libc.a(lib_a-atexit.o)
                                                  c:/rt-threadstudio/repo/extract/toolchain_support_packages/arm/gnu_tools_for_arm_embedded_processors/5.4.1/bin/../lib/gcc/arm-none-eabi/5.4.1/../../../../arm-none-eabi/lib/armv7e-m/fpu\libc.a(lib_a-__call_atexit.o)
                                                  c:/rt-threadstudio/repo/extract/toolchain_support_packages/arm/gnu_tools_for_arm_embedded_processors/5.4.1/bin/../lib/gcc/arm-none-eabi/5.4.1/../../../../arm-none-eabi/lib/armv7e-m/fpu/crt0.o
atoi                                              c:/rt-threadstudio/repo/extract/toolchain_support_packages/arm/gnu_tools_for_arm_embedded_processors/5.4.1/bin/../lib/gcc/arm-none-eabi/5.4.1/../../../../arm-none-eabi/lib/armv7e-m/fpu\libc.a(lib_a-atoi.o)
                                                  ./rt-thread/components/drivers/misc/pin.o
                                                  ./rt-thread/components/finsh/msh_file.o
bcmp                                              ./rt-thread/components/libc/compilers/common/cstring.o
bcopy                                             ./rt-thread/components/libc/compilers/common/cstring.o
bzero                                             ./rt-thread/components/libc/compilers/common/cstring.o
cat                                               ./rt-thread/components/dfs/src/dfs_file.o
                                                  ./rt-thread/components/finsh/msh_file.o
chdir                                             ./rt-thread/components/dfs/src/dfs_posix.o
                                                  ./rt-thread/components/finsh/msh_file.o
clock                                             ./rt-thread/components/libc/compilers/common/ctime.o
close                                             ./rt-thread/components/dfs/src/dfs_posix.o
                                                  ./rt-thread/components/finsh/msh_file.o
                                                  ./rt-thread/components/libc/compilers/newlib/syscalls.o
closedir                                          ./rt-thread/components/dfs/src/dfs_posix.o
                                                  ./rt-thread/components/finsh/msh_file.o
                                                  ./rt-thread/components/finsh/msh.o
cmd_free                                          ./rt-thread/components/finsh/msh.o
cmd_list                                          ./rt-thread/components/finsh/cmd.o
cmd_ps                                            ./rt-thread/components/finsh/msh.o
copy                                              ./rt-thread/components/dfs/src/dfs_file.o
                                                  ./rt-thread/components/finsh/msh_file.o
creat                                             ./rt-thread/components/dfs/src/dfs_posix.o
ctime                                             ./rt-thread/components/libc/compilers/common/ctime.o
ctime_r                                           ./rt-thread/components/libc/compilers/common/ctime.o
df                                                ./rt-thread/components/dfs/src/dfs_fs.o
                                                  ./rt-thread/components/finsh/msh_file.o
dfs_fdtable_get                                   ./rt-thread/components/dfs/src/dfs.o
dfs_file_close                                    ./rt-thread/components/dfs/src/dfs_file.o
                                                  ./rt-thread/components/dfs/src/dfs_posix.o
                                                  ./rt-thread/components/dfs/src/dfs_fs.o
dfs_file_flush                                    ./rt-thread/components/dfs/src/dfs_file.o
                                                  ./rt-thread/components/dfs/src/dfs_posix.o
dfs_file_ftruncate                                ./rt-thread/components/dfs/src/dfs_file.o
                                                  ./rt-thread/components/dfs/src/dfs_posix.o
dfs_file_getdents                                 ./rt-thread/components/dfs/src/dfs_file.o
                                                  ./rt-thread/components/dfs/src/dfs_posix.o
dfs_file_ioctl                                    ./rt-thread/components/dfs/src/dfs_file.o
                                                  ./rt-thread/components/dfs/src/dfs_posix.o
dfs_file_lseek                                    ./rt-thread/components/dfs/src/dfs_file.o
                                                  ./rt-thread/components/dfs/src/dfs_posix.o
dfs_file_open                                     ./rt-thread/components/dfs/src/dfs_file.o
                                                  ./rt-thread/components/dfs/src/dfs_posix.o
                                                  ./rt-thread/components/dfs/src/dfs_fs.o
dfs_file_read                                     ./rt-thread/components/dfs/src/dfs_file.o
                                                  ./rt-thread/components/dfs/src/dfs_posix.o
dfs_file_rename                                   ./rt-thread/components/dfs/src/dfs_file.o
                                                  ./rt-thread/components/dfs/src/dfs_posix.o
dfs_file_stat                                     ./rt-thread/components/dfs/src/dfs_file.o
                                                  ./rt-thread/components/dfs/src/dfs_posix.o
dfs_file_unlink                                   ./rt-thread/components/dfs/src/dfs_file.o
                                                  ./rt-thread/components/dfs/src/dfs_posix.o
dfs_file_write                                    ./rt-thread/components/dfs/src/dfs_file.o
                                                  ./rt-thread/components/dfs/src/dfs_posix.o
dfs_filesystem_get_mounted_path                   ./rt-thread/components/dfs/src/dfs_fs.o
dfs_filesystem_get_partition                      ./rt-thread/components/dfs/src/dfs_fs.o
dfs_filesystem_lookup                             ./rt-thread/components/dfs/src/dfs_fs.o
                                                  ./rt-thread/components/dfs/src/dfs_file.o
                                                  ./rt-thread/components/dfs/src/dfs.o
dfs_init                                          ./rt-thread/components/dfs/src/dfs.o
dfs_lock                                          ./rt-thread/components/dfs/src/dfs.o
                                                  ./rt-thread/components/dfs/src/dfs_posix.o
                                                  ./rt-thread/components/dfs/src/dfs_fs.o
dfs_mkfs                                          ./rt-thread/components/dfs/src/dfs_fs.o
                                                  ./rt-thread/components/finsh/msh_file.o
dfs_mount                                         ./rt-thread/components/dfs/src/dfs_fs.o
                                                  ./rt-thread/components/finsh/msh_file.o
dfs_normalize_path                                ./rt-thread/components/dfs/src/dfs.o
                                                  ./rt-thread/components/dfs/src/dfs_posix.o
                                                  ./rt-thread/components/dfs/src/dfs_fs.o
                                                  ./rt-thread/components/dfs/src/dfs_file.o
dfs_register                                      ./rt-thread/components/dfs/src/dfs_fs.o
dfs_statfs                                        ./rt-thread/components/dfs/src/dfs_fs.o
                                                  ./rt-thread/components/dfs/src/dfs_posix.o
dfs_subdir                                        ./rt-thread/components/dfs/src/dfs.o
                                                  ./rt-thread/components/dfs/src/dfs_file.o
dfs_unlock                                        ./rt-thread/components/dfs/src/dfs.o
                                                  ./rt-thread/components/dfs/src/dfs_posix.o
                                                  ./rt-thread/components/dfs/src/dfs_fs.o
dfs_unmount                                       ./rt-thread/components/dfs/src/dfs_fs.o
                                                  ./rt-thread/components/finsh/msh_file.o
difftime                                          ./rt-thread/components/libc/compilers/common/ctime.o
entry                                             ./rt-thread/src/components.o
                                                  ./libraries/APM32F4xx_Library/Device/Geehy/APM32F4xx/Source/gcc/startup_apm32f40x.o
exit                                              c:/rt-threadstudio/repo/extract/toolchain_support_packages/arm/gnu_tools_for_arm_embedded_processors/5.4.1/bin/../lib/gcc/arm-none-eabi/5.4.1/../../../../arm-none-eabi/lib/armv7e-m/fpu\libc.a(lib_a-exit.o)
                                                  c:/rt-threadstudio/repo/extract/toolchain_support_packages/arm/gnu_tools_for_arm_embedded_processors/5.4.1/bin/../lib/gcc/arm-none-eabi/5.4.1/../../../../arm-none-eabi/lib/armv7e-m/fpu/crt0.o
explicit_bzero                                    ./rt-thread/components/libc/compilers/common/cstring.o
fcntl                                             ./rt-thread/components/dfs/src/dfs_posix.o
fd_get                                            ./rt-thread/components/dfs/src/dfs.o
                                                  ./rt-thread/components/dfs/src/dfs_posix.o
fd_is_open                                        ./rt-thread/components/dfs/src/dfs.o
                                                  ./rt-thread/components/dfs/src/dfs_file.o
fd_new                                            ./rt-thread/components/dfs/src/dfs.o
                                                  ./rt-thread/components/dfs/src/dfs_posix.o
fd_put                                            ./rt-thread/components/dfs/src/dfs.o
                                                  ./rt-thread/components/dfs/src/dfs_posix.o
ffs                                               ./rt-thread/components/libc/compilers/common/cstring.o
ffsl                                              ./rt-thread/components/libc/compilers/common/cstring.o
ffsll                                             ./rt-thread/components/libc/compilers/common/cstring.o
filesystem_operation_table                        ./rt-thread/components/dfs/src/dfs.o
                                                  ./rt-thread/components/dfs/src/dfs_fs.o
filesystem_table                                  ./rt-thread/components/dfs/src/dfs.o
                                                  ./rt-thread/components/dfs/src/dfs_fs.o
                                                  ./rt-thread/components/finsh/msh_file.o
finsh_get_device                                  ./rt-thread/components/finsh/shell.o
finsh_get_echo                                    ./rt-thread/components/finsh/shell.o
finsh_get_prompt                                  ./rt-thread/components/finsh/shell.o
finsh_get_prompt_mode                             ./rt-thread/components/finsh/shell.o
finsh_getchar                                     ./rt-thread/components/finsh/shell.o
finsh_set_device                                  ./rt-thread/components/finsh/shell.o
finsh_set_echo                                    ./rt-thread/components/finsh/shell.o
finsh_set_prompt                                  ./rt-thread/components/finsh/shell.o
finsh_set_prompt_mode                             ./rt-thread/components/finsh/shell.o
finsh_system_function_init                        ./rt-thread/components/finsh/shell.o
finsh_system_init                                 ./rt-thread/components/finsh/shell.o
finsh_thread_entry                                ./rt-thread/components/finsh/shell.o
flock                                             ./rt-thread/components/libc/compilers/newlib/syscalls.o
free                                              c:/rt-threadstudio/repo/extract/toolchain_support_packages/arm/gnu_tools_for_arm_embedded_processors/5.4.1/bin/../lib/gcc/arm-none-eabi/5.4.1/../../../../arm-none-eabi/lib/armv7e-m/fpu\libc.a(lib_a-malloc.o)
                                                  c:/rt-threadstudio/repo/extract/toolchain_support_packages/arm/gnu_tools_for_arm_embedded_processors/5.4.1/bin/../lib/gcc/arm-none-eabi/5.4.1/../../../../arm-none-eabi/lib/armv7e-m/fpu\libc.a(lib_a-__call_atexit.o)
fstat                                             ./rt-thread/components/dfs/src/dfs_posix.o
fsync                                             ./rt-thread/components/dfs/src/dfs_posix.o
ftruncate                                         ./rt-thread/components/dfs/src/dfs_posix.o
g_pfnVectors                                      ./libraries/APM32F4xx_Library/Device/Geehy/APM32F4xx/Source/gcc/startup_apm32f40x.o
getcwd                                            ./rt-thread/components/dfs/src/dfs_posix.o
                                                  ./rt-thread/components/finsh/shell.o
                                                  ./rt-thread/components/finsh/msh.o
gettimeofday                                      ./rt-thread/components/libc/compilers/common/ctime.o
gmtime                                            ./rt-thread/components/libc/compilers/common/ctime.o
gmtime_r                                          ./rt-thread/components/libc/compilers/common/ctime.o
hardware_init_hook                                c:/rt-threadstudio/repo/extract/toolchain_support_packages/arm/gnu_tools_for_arm_embedded_processors/5.4.1/bin/../lib/gcc/arm-none-eabi/5.4.1/../../../../arm-none-eabi/lib/armv7e-m/fpu/crt0.o
index                                             ./rt-thread/components/libc/compilers/common/cstring.o
ioctl                                             ./rt-thread/components/dfs/src/dfs_posix.o
isascii                                           ./rt-thread/components/libc/compilers/common/cctype.o
itoa                                              ./rt-thread/components/libc/compilers/common/cstdlib.o
list_device                                       ./rt-thread/components/finsh/cmd.o
list_event                                        ./rt-thread/components/finsh/cmd.o
list_fd                                           ./rt-thread/components/dfs/src/dfs.o
                                                  ./rt-thread/components/finsh/cmd.o
list_mailbox                                      ./rt-thread/components/finsh/cmd.o
list_mempool                                      ./rt-thread/components/finsh/cmd.o
list_msgqueue                                     ./rt-thread/components/finsh/cmd.o
list_mutex                                        ./rt-thread/components/finsh/cmd.o
list_sem                                          ./rt-thread/components/finsh/cmd.o
list_thread                                       ./rt-thread/components/finsh/cmd.o
                                                  ./rt-thread/components/finsh/msh.o
                                                  ./rt-thread/libcpu/arm/cortex-m4/cpuport.o
list_timer                                        ./rt-thread/components/finsh/cmd.o
localtime                                         ./rt-thread/components/libc/compilers/common/ctime.o
localtime_r                                       ./rt-thread/components/libc/compilers/common/ctime.o
ls                                                ./rt-thread/components/dfs/src/dfs_file.o
                                                  ./rt-thread/components/finsh/msh_file.o
lseek                                             ./rt-thread/components/dfs/src/dfs_posix.o
                                                  ./rt-thread/components/finsh/msh_file.o
                                                  ./rt-thread/components/libc/compilers/newlib/syscalls.o
ltoa                                              ./rt-thread/components/libc/compilers/common/cstdlib.o
main                                              ./applications/main.o
                                                  ./rt-thread/src/components.o
                                                  c:/rt-threadstudio/repo/extract/toolchain_support_packages/arm/gnu_tools_for_arm_embedded_processors/5.4.1/bin/../lib/gcc/arm-none-eabi/5.4.1/../../../../arm-none-eabi/lib/armv7e-m/fpu/crt0.o
main_thread_entry                                 ./rt-thread/src/components.o
malloc                                            c:/rt-threadstudio/repo/extract/toolchain_support_packages/arm/gnu_tools_for_arm_embedded_processors/5.4.1/bin/../lib/gcc/arm-none-eabi/5.4.1/../../../../arm-none-eabi/lib/armv7e-m/fpu\libc.a(lib_a-malloc.o)
                                                  c:/rt-threadstudio/repo/extract/toolchain_support_packages/arm/gnu_tools_for_arm_embedded_processors/5.4.1/bin/../lib/gcc/arm-none-eabi/5.4.1/../../../../arm-none-eabi/lib/armv7e-m/fpu\libc.a(lib_a-__atexit.o)
                                                  ./rt-thread/components/libc/compilers/common/cstring.o
memchr                                            c:/rt-threadstudio/repo/extract/toolchain_support_packages/arm/gnu_tools_for_arm_embedded_processors/5.4.1/bin/../lib/gcc/arm-none-eabi/5.4.1/../../../../arm-none-eabi/lib/armv7e-m/fpu\libc.a(lib_a-memchr.o)
                                                  c:/rt-threadstudio/repo/extract/toolchain_support_packages/arm/gnu_tools_for_arm_embedded_processors/5.4.1/bin/../lib/gcc/arm-none-eabi/5.4.1/../../../../arm-none-eabi/lib/armv7e-m/fpu\libc.a(lib_a-strstr.o)
memcmp                                            c:/rt-threadstudio/repo/extract/toolchain_support_packages/arm/gnu_tools_for_arm_embedded_processors/5.4.1/bin/../lib/gcc/arm-none-eabi/5.4.1/../../../../arm-none-eabi/lib/armv7e-m/fpu\libc.a(lib_a-memcmp.o)
                                                  c:/rt-threadstudio/repo/extract/toolchain_support_packages/arm/gnu_tools_for_arm_embedded_processors/5.4.1/bin/../lib/gcc/arm-none-eabi/5.4.1/../../../../arm-none-eabi/lib/armv7e-m/fpu\libc.a(lib_a-strstr.o)
                                                  ./rt-thread/components/finsh/shell.o
memrchr                                           ./rt-thread/components/libc/compilers/common/cstring.o
memset                                            c:/rt-threadstudio/repo/extract/toolchain_support_packages/arm/gnu_tools_for_arm_embedded_processors/5.4.1/bin/../lib/gcc/arm-none-eabi/5.4.1/../../../../arm-none-eabi/lib/armv7e-m/fpu\libc.a(lib_a-memset.o)
                                                  c:/rt-threadstudio/repo/extract/toolchain_support_packages/arm/gnu_tools_for_arm_embedded_processors/5.4.1/bin/../lib/gcc/arm-none-eabi/5.4.1/../../../../arm-none-eabi/lib/armv7e-m/fpu/crt0.o
mkdir                                             ./rt-thread/components/dfs/src/dfs_posix.o
                                                  ./rt-thread/components/dfs/src/dfs_file.o
                                                  ./rt-thread/components/finsh/msh_file.o
                                                  ./rt-thread/components/libc/compilers/newlib/syscalls.o
mkfs                                              ./rt-thread/components/dfs/src/dfs_fs.o
mktime                                            ./rt-thread/components/libc/compilers/common/ctime.o
msh_auto_complete                                 ./rt-thread/components/finsh/msh.o
                                                  ./rt-thread/components/finsh/shell.o
msh_auto_complete_path                            ./rt-thread/components/finsh/msh.o
msh_exec                                          ./rt-thread/components/finsh/msh.o
                                                  ./rt-thread/components/finsh/shell.o
                                                  ./rt-thread/components/finsh/msh_file.o
                                                  ./rt-thread/components/libc/compilers/common/cstdlib.o
msh_exec_script                                   ./rt-thread/components/finsh/msh_file.o
                                                  ./rt-thread/components/finsh/msh.o
msh_help                                          ./rt-thread/components/finsh/msh.o
msh_ishex                                         ./rt-thread/components/finsh/msh_parse.o
msh_isint                                         ./rt-thread/components/finsh/msh_parse.o
                                                  ./rt-thread/components/drivers/misc/pin.o
msh_strtohex                                      ./rt-thread/components/finsh/msh_parse.o
open                                              ./rt-thread/components/dfs/src/dfs_posix.o
                                                  ./rt-thread/components/finsh/msh_file.o
                                                  ./rt-thread/components/libc/compilers/newlib/syscalls.o
opendir                                           ./rt-thread/components/dfs/src/dfs_posix.o
                                                  ./rt-thread/components/finsh/msh_file.o
                                                  ./rt-thread/components/finsh/msh.o
read                                              ./rt-thread/components/dfs/src/dfs_posix.o
                                                  ./rt-thread/components/finsh/msh_file.o
                                                  ./rt-thread/components/libc/compilers/newlib/syscalls.o
readdir                                           ./rt-thread/components/dfs/src/dfs_posix.o
                                                  ./rt-thread/components/finsh/msh_file.o
                                                  ./rt-thread/components/finsh/msh.o
rename                                            ./rt-thread/components/dfs/src/dfs_posix.o
                                                  ./rt-thread/components/finsh/msh_file.o
                                                  ./rt-thread/components/libc/compilers/newlib/syscalls.o
rewinddir                                         ./rt-thread/components/dfs/src/dfs_posix.o
                                                  ./rt-thread/components/finsh/msh.o
rindex                                            ./rt-thread/components/libc/compilers/common/cstring.o
rm                                                ./rt-thread/components/dfs/src/dfs_file.o
rmdir                                             ./rt-thread/components/dfs/src/dfs_posix.o
rt_application_init                               ./rt-thread/src/components.o
rt_assert_handler                                 ./rt-thread/src/kservice.o
                                                  ./libraries/Drivers/drv_usart.o
                                                  ./rt-thread/components/dfs/src/dfs_fs.o
                                                  ./rt-thread/components/dfs/src/dfs.o
                                                  ./rt-thread/components/drivers/ipc/workqueue.o
                                                  ./rt-thread/components/drivers/ipc/waitqueue.o
                                                  ./rt-thread/components/drivers/ipc/ringbuffer.o
                                                  ./rt-thread/components/drivers/ipc/ringblk_buf.o
                                                  ./rt-thread/components/drivers/ipc/pipe.o
                                                  ./rt-thread/components/drivers/ipc/dataqueue.o
                                                  ./rt-thread/components/drivers/ipc/completion.o
                                                  ./rt-thread/components/drivers/misc/pin.o
                                                  ./rt-thread/components/drivers/serial/serial.o
                                                  ./rt-thread/components/finsh/shell.o
                                                  ./rt-thread/components/finsh/msh.o
                                                  ./rt-thread/libcpu/arm/common/showmem.o
                                                  ./rt-thread/libcpu/arm/cortex-m4/cpuport.o
                                                  ./rt-thread/src/timer.o
                                                  ./rt-thread/src/thread.o
                                                  ./rt-thread/src/scheduler.o
                                                  ./rt-thread/src/object.o
                                                  ./rt-thread/src/mempool.o
                                                  ./rt-thread/src/mem.o
                                                  ./rt-thread/src/ipc.o
                                                  ./rt-thread/src/device.o
                                                  ./rt-thread/src/components.o
rt_assert_hook                                    ./rt-thread/src/kservice.o
rt_assert_set_hook                                ./rt-thread/src/kservice.o
rt_calloc                                         ./rt-thread/src/kservice.o
                                                  ./rt-thread/components/dfs/src/dfs.o
                                                  ./rt-thread/components/finsh/shell.o
                                                  ./rt-thread/components/libc/compilers/newlib/syscalls.o
rt_completion_done                                ./rt-thread/components/drivers/ipc/completion.o
                                                  ./rt-thread/components/drivers/serial/serial.o
rt_completion_init                                ./rt-thread/components/drivers/ipc/completion.o
                                                  ./rt-thread/components/drivers/serial/serial.o
rt_completion_wait                                ./rt-thread/components/drivers/ipc/completion.o
                                                  ./rt-thread/components/drivers/serial/serial.o
rt_components_board_init                          ./rt-thread/src/components.o
                                                  ./libraries/Drivers/drv_common.o
rt_components_init                                ./rt-thread/src/components.o
rt_console_get_device                             ./rt-thread/src/kservice.o
                                                  ./rt-thread/components/finsh/shell.o
                                                  ./rt-thread/components/libc/compilers/newlib/syscalls.o
rt_console_set_device                             ./rt-thread/src/kservice.o
                                                  ./libraries/Drivers/drv_common.o
rt_critical_level                                 ./rt-thread/src/scheduler.o
                                                  ./rt-thread/components/drivers/ipc/waitqueue.o
                                                  ./rt-thread/components/drivers/ipc/dataqueue.o
                                                  ./rt-thread/components/drivers/ipc/completion.o
                                                  ./rt-thread/src/ipc.o
rt_current_priority                               ./rt-thread/src/scheduler.o
rt_current_thread                                 ./rt-thread/src/scheduler.o
                                                  ./rt-thread/src/thread.o
rt_data_queue_deinit                              ./rt-thread/components/drivers/ipc/dataqueue.o
                                                  ./rt-thread/components/drivers/serial/serial.o
rt_data_queue_init                                ./rt-thread/components/drivers/ipc/dataqueue.o
                                                  ./rt-thread/components/drivers/serial/serial.o
rt_data_queue_len                                 ./rt-thread/components/drivers/ipc/dataqueue.o
rt_data_queue_peek                                ./rt-thread/components/drivers/ipc/dataqueue.o
                                                  ./rt-thread/components/drivers/serial/serial.o
rt_data_queue_pop                                 ./rt-thread/components/drivers/ipc/dataqueue.o
                                                  ./rt-thread/components/drivers/serial/serial.o
rt_data_queue_push                                ./rt-thread/components/drivers/ipc/dataqueue.o
                                                  ./rt-thread/components/drivers/serial/serial.o
rt_data_queue_reset                               ./rt-thread/components/drivers/ipc/dataqueue.o
rt_device_close                                   ./rt-thread/src/device.o
                                                  ./rt-thread/components/dfs/src/dfs_fs.o
                                                  ./rt-thread/components/finsh/shell.o
                                                  ./rt-thread/src/kservice.o
rt_device_control                                 ./rt-thread/src/device.o
rt_device_create                                  ./rt-thread/src/device.o
rt_device_destroy                                 ./rt-thread/src/device.o
rt_device_find                                    ./rt-thread/src/device.o
                                                  ./rt-thread/components/dfs/src/dfs_fs.o
                                                  ./rt-thread/components/drivers/ipc/pipe.o
                                                  ./rt-thread/components/finsh/shell.o
                                                  ./rt-thread/src/kservice.o
rt_device_init                                    ./rt-thread/src/device.o
rt_device_open                                    ./rt-thread/src/device.o
                                                  ./rt-thread/components/dfs/src/dfs_fs.o
                                                  ./rt-thread/components/finsh/shell.o
                                                  ./rt-thread/src/kservice.o
rt_device_pin_register                            ./rt-thread/components/drivers/misc/pin.o
                                                  ./libraries/Drivers/drv_gpio.o
rt_device_read                                    ./rt-thread/src/device.o
                                                  ./rt-thread/components/finsh/shell.o
rt_device_register                                ./rt-thread/src/device.o
                                                  ./rt-thread/components/drivers/ipc/pipe.o
                                                  ./rt-thread/components/drivers/misc/pin.o
                                                  ./rt-thread/components/drivers/serial/serial.o
rt_device_set_rx_indicate                         ./rt-thread/src/device.o
                                                  ./rt-thread/components/finsh/shell.o
rt_device_set_tx_complete                         ./rt-thread/src/device.o
rt_device_unregister                              ./rt-thread/src/device.o
                                                  ./rt-thread/components/drivers/ipc/pipe.o
rt_device_write                                   ./rt-thread/src/device.o
                                                  ./rt-thread/components/libc/compilers/newlib/syscalls.o
                                                  ./rt-thread/src/kservice.o
rt_enter_critical                                 ./rt-thread/src/scheduler.o
                                                  ./rt-thread/components/dfs/src/dfs.o
                                                  ./rt-thread/components/drivers/ipc/workqueue.o
                                                  ./rt-thread/components/drivers/ipc/dataqueue.o
                                                  ./rt-thread/src/object.o
rt_event_control                                  ./rt-thread/src/ipc.o
rt_event_create                                   ./rt-thread/src/ipc.o
rt_event_delete                                   ./rt-thread/src/ipc.o
rt_event_detach                                   ./rt-thread/src/ipc.o
rt_event_init                                     ./rt-thread/src/ipc.o
rt_event_recv                                     ./rt-thread/src/ipc.o
rt_event_send                                     ./rt-thread/src/ipc.o
rt_exit_critical                                  ./rt-thread/src/scheduler.o
                                                  ./rt-thread/components/dfs/src/dfs.o
                                                  ./rt-thread/components/drivers/ipc/workqueue.o
                                                  ./rt-thread/components/drivers/ipc/dataqueue.o
                                                  ./rt-thread/src/object.o
rt_free                                           ./rt-thread/src/kservice.o
                                                  ./rt-thread/components/dfs/src/dfs_posix.o
                                                  ./rt-thread/components/dfs/src/dfs_fs.o
                                                  ./rt-thread/components/dfs/src/dfs_file.o
                                                  ./rt-thread/components/dfs/src/dfs.o
                                                  ./rt-thread/components/drivers/ipc/workqueue.o
                                                  ./rt-thread/components/drivers/ipc/ringbuffer.o
                                                  ./rt-thread/components/drivers/ipc/ringblk_buf.o
                                                  ./rt-thread/components/drivers/ipc/pipe.o
                                                  ./rt-thread/components/drivers/ipc/dataqueue.o
                                                  ./rt-thread/components/drivers/serial/serial.o
                                                  ./rt-thread/components/finsh/shell.o
                                                  ./rt-thread/components/finsh/msh_file.o
                                                  ./rt-thread/components/finsh/msh.o
                                                  ./rt-thread/components/libc/compilers/newlib/syscalls.o
                                                  ./rt-thread/src/object.o
                                                  ./rt-thread/src/mempool.o
                                                  ./rt-thread/src/ipc.o
                                                  ./rt-thread/src/idle.o
                                                  ./rt-thread/src/device.o
rt_free_align                                     ./rt-thread/src/kservice.o
rt_free_sethook                                   ./rt-thread/src/kservice.o
rt_get_errno                                      ./rt-thread/src/kservice.o
rt_hw_backtrace                                   ./rt-thread/libcpu/arm/common/backtrace.o
rt_hw_board_init                                  ./libraries/Drivers/drv_common.o
                                                  ./rt-thread/src/components.o
rt_hw_console_output                              ./rt-thread/src/kservice.o
rt_hw_context_switch                              ./rt-thread/libcpu/arm/cortex-m4/context_gcc.o
                                                  ./rt-thread/src/scheduler.o
rt_hw_context_switch_interrupt                    ./rt-thread/libcpu/arm/cortex-m4/context_gcc.o
                                                  ./rt-thread/src/scheduler.o
rt_hw_context_switch_to                           ./rt-thread/libcpu/arm/cortex-m4/context_gcc.o
                                                  ./rt-thread/src/scheduler.o
rt_hw_cpu_reset                                   ./rt-thread/libcpu/arm/cortex-m4/cpuport.o
                                                  ./libraries/Drivers/drv_common.o
rt_hw_cpu_shutdown                                ./rt-thread/libcpu/arm/cortex-m4/cpuport.o
rt_hw_exception_install                           ./rt-thread/libcpu/arm/cortex-m4/cpuport.o
rt_hw_hard_fault_exception                        ./rt-thread/libcpu/arm/cortex-m4/cpuport.o
                                                  ./rt-thread/libcpu/arm/cortex-m4/context_gcc.o
rt_hw_interrupt_disable                           ./rt-thread/libcpu/arm/cortex-m4/context_gcc.o
                                                  ./libraries/Drivers/drv_gpio.o
                                                  ./rt-thread/components/drivers/ipc/workqueue.o
                                                  ./rt-thread/components/drivers/ipc/waitqueue.o
                                                  ./rt-thread/components/drivers/ipc/ringblk_buf.o
                                                  ./rt-thread/components/drivers/ipc/dataqueue.o
                                                  ./rt-thread/components/drivers/ipc/completion.o
                                                  ./rt-thread/components/drivers/serial/serial.o
                                                  ./rt-thread/components/finsh/cmd.o
                                                  ./rt-thread/components/libc/compilers/common/ctime.o
                                                  ./rt-thread/src/timer.o
                                                  ./rt-thread/src/thread.o
                                                  ./rt-thread/src/scheduler.o
                                                  ./rt-thread/src/object.o
                                                  ./rt-thread/src/mempool.o
                                                  ./rt-thread/src/irq.o
                                                  ./rt-thread/src/ipc.o
                                                  ./rt-thread/src/idle.o
                                                  ./rt-thread/src/components.o
                                                  ./rt-thread/src/clock.o
rt_hw_interrupt_enable                            ./rt-thread/libcpu/arm/cortex-m4/context_gcc.o
                                                  ./libraries/Drivers/drv_gpio.o
                                                  ./rt-thread/components/drivers/ipc/workqueue.o
                                                  ./rt-thread/components/drivers/ipc/waitqueue.o
                                                  ./rt-thread/components/drivers/ipc/ringblk_buf.o
                                                  ./rt-thread/components/drivers/ipc/dataqueue.o
                                                  ./rt-thread/components/drivers/ipc/completion.o
                                                  ./rt-thread/components/drivers/serial/serial.o
                                                  ./rt-thread/components/finsh/cmd.o
                                                  ./rt-thread/components/libc/compilers/common/ctime.o
                                                  ./rt-thread/src/timer.o
                                                  ./rt-thread/src/thread.o
                                                  ./rt-thread/src/scheduler.o
                                                  ./rt-thread/src/object.o
                                                  ./rt-thread/src/mempool.o
                                                  ./rt-thread/src/irq.o
                                                  ./rt-thread/src/ipc.o
                                                  ./rt-thread/src/idle.o
                                                  ./rt-thread/src/clock.o
rt_hw_interrupt_thread_switch                     ./rt-thread/libcpu/arm/cortex-m4/context_gcc.o
rt_hw_pin_init                                    ./libraries/Drivers/drv_gpio.o
                                                  ./libraries/Drivers/drv_common.o
rt_hw_serial_isr                                  ./rt-thread/components/drivers/serial/serial.o
                                                  ./libraries/Drivers/drv_usart.o
rt_hw_serial_register                             ./rt-thread/components/drivers/serial/serial.o
                                                  ./libraries/Drivers/drv_usart.o
rt_hw_show_memory                                 ./rt-thread/libcpu/arm/common/showmem.o
rt_hw_stack_init                                  ./rt-thread/libcpu/arm/cortex-m4/cpuport.o
                                                  ./rt-thread/src/thread.o
rt_hw_systick_init                                ./libraries/Drivers/drv_common.o
rt_hw_us_delay                                    ./libraries/Drivers/drv_common.o
                                                  ./rt-thread/src/kservice.o
rt_hw_usart_init                                  ./libraries/Drivers/drv_usart.o
                                                  ./libraries/Drivers/drv_common.o
rt_interrupt_enter                                ./rt-thread/src/irq.o
                                                  ./libraries/Drivers/drv_usart.o
                                                  ./libraries/Drivers/drv_gpio.o
                                                  ./libraries/Drivers/drv_common.o
rt_interrupt_enter_sethook                        ./rt-thread/src/irq.o
rt_interrupt_from_thread                          ./rt-thread/libcpu/arm/cortex-m4/cpuport.o
                                                  ./rt-thread/libcpu/arm/cortex-m4/context_gcc.o
rt_interrupt_get_nest                             ./rt-thread/src/irq.o
                                                  ./rt-thread/components/drivers/ipc/waitqueue.o
                                                  ./rt-thread/components/drivers/ipc/dataqueue.o
                                                  ./rt-thread/components/drivers/ipc/completion.o
                                                  ./rt-thread/src/object.o
                                                  ./rt-thread/src/mempool.o
                                                  ./rt-thread/src/kservice.o
                                                  ./rt-thread/src/ipc.o
rt_interrupt_leave                                ./rt-thread/src/irq.o
                                                  ./libraries/Drivers/drv_usart.o
                                                  ./libraries/Drivers/drv_gpio.o
                                                  ./libraries/Drivers/drv_common.o
rt_interrupt_leave_sethook                        ./rt-thread/src/irq.o
rt_interrupt_nest                                 ./rt-thread/src/irq.o
                                                  ./rt-thread/src/scheduler.o
rt_interrupt_to_thread                            ./rt-thread/libcpu/arm/cortex-m4/cpuport.o
                                                  ./rt-thread/libcpu/arm/cortex-m4/context_gcc.o
rt_kprintf                                        ./rt-thread/src/kservice.o
                                                  ./applications/main.o
                                                  ./rt-thread/components/dfs/src/dfs_posix.o
                                                  ./rt-thread/components/dfs/src/dfs_fs.o
                                                  ./rt-thread/components/dfs/src/dfs_file.o
                                                  ./rt-thread/components/dfs/src/dfs.o
                                                  ./rt-thread/components/drivers/ipc/waitqueue.o
                                                  ./rt-thread/components/drivers/ipc/dataqueue.o
                                                  ./rt-thread/components/drivers/ipc/completion.o
                                                  ./rt-thread/components/drivers/misc/pin.o
                                                  ./rt-thread/components/drivers/serial/serial.o
                                                  ./rt-thread/components/finsh/shell.o
                                                  ./rt-thread/components/finsh/msh_file.o
                                                  ./rt-thread/components/finsh/msh.o
                                                  ./rt-thread/components/finsh/cmd.o
                                                  ./rt-thread/components/libc/compilers/common/ctime.o
                                                  ./rt-thread/components/libc/compilers/common/cstdlib.o
                                                  ./rt-thread/components/libc/compilers/newlib/syscalls.o
                                                  ./rt-thread/libcpu/arm/common/showmem.o
                                                  ./rt-thread/libcpu/arm/common/backtrace.o
                                                  ./rt-thread/libcpu/arm/cortex-m4/cpuport.o
                                                  ./rt-thread/src/scheduler.o
                                                  ./rt-thread/src/object.o
                                                  ./rt-thread/src/mempool.o
                                                  ./rt-thread/src/mem.o
                                                  ./rt-thread/src/ipc.o
                                                  ./rt-thread/src/device.o
rt_kputs                                          ./rt-thread/src/kservice.o
rt_malloc                                         ./rt-thread/src/kservice.o
                                                  ./rt-thread/components/dfs/src/dfs_posix.o
                                                  ./rt-thread/components/dfs/src/dfs_file.o
                                                  ./rt-thread/components/dfs/src/dfs.o
                                                  ./rt-thread/components/drivers/ipc/workqueue.o
                                                  ./rt-thread/components/drivers/ipc/ringbuffer.o
                                                  ./rt-thread/components/drivers/ipc/ringblk_buf.o
                                                  ./rt-thread/components/drivers/ipc/pipe.o
                                                  ./rt-thread/components/drivers/ipc/dataqueue.o
                                                  ./rt-thread/components/drivers/serial/serial.o
                                                  ./rt-thread/components/finsh/shell.o
                                                  ./rt-thread/components/finsh/msh_file.o
                                                  ./rt-thread/components/finsh/msh.o
                                                  ./rt-thread/components/libc/compilers/newlib/syscalls.o
                                                  ./rt-thread/src/thread.o
                                                  ./rt-thread/src/object.o
                                                  ./rt-thread/src/mempool.o
                                                  ./rt-thread/src/ipc.o
                                                  ./rt-thread/src/device.o
rt_malloc_align                                   ./rt-thread/src/kservice.o
rt_malloc_sethook                                 ./rt-thread/src/kservice.o
rt_mb_control                                     ./rt-thread/src/ipc.o
rt_mb_create                                      ./rt-thread/src/ipc.o
rt_mb_delete                                      ./rt-thread/src/ipc.o
rt_mb_detach                                      ./rt-thread/src/ipc.o
rt_mb_init                                        ./rt-thread/src/ipc.o
rt_mb_recv                                        ./rt-thread/src/ipc.o
rt_mb_send                                        ./rt-thread/src/ipc.o
rt_mb_send_wait                                   ./rt-thread/src/ipc.o
rt_mb_urgent                                      ./rt-thread/src/ipc.o
rt_memcmp                                         ./rt-thread/src/kservice.o
                                                  ./rt-thread/components/libc/compilers/common/cstring.o
rt_memcpy                                         ./rt-thread/src/kservice.o
                                                  ./rt-thread/components/drivers/ipc/ringbuffer.o
                                                  ./rt-thread/components/drivers/serial/serial.o
                                                  ./rt-thread/components/finsh/shell.o
                                                  ./rt-thread/components/finsh/msh_file.o
                                                  ./rt-thread/components/finsh/msh.o
                                                  ./rt-thread/components/finsh/cmd.o
                                                  ./rt-thread/components/libc/compilers/common/cstring.o
                                                  ./rt-thread/src/mem.o
                                                  ./rt-thread/src/ipc.o
rt_memmove                                        ./rt-thread/src/kservice.o
                                                  ./rt-thread/components/finsh/shell.o
rt_memory_info                                    ./rt-thread/src/kservice.o
                                                  ./rt-thread/components/finsh/msh.o
rt_memset                                         ./rt-thread/src/kservice.o
                                                  ./rt-thread/components/dfs/src/dfs_posix.o
                                                  ./rt-thread/components/dfs/src/dfs_fs.o
                                                  ./rt-thread/components/dfs/src/dfs_file.o
                                                  ./rt-thread/components/dfs/src/dfs.o
                                                  ./rt-thread/components/drivers/ipc/pipe.o
                                                  ./rt-thread/components/drivers/serial/serial.o
                                                  ./rt-thread/components/finsh/shell.o
                                                  ./rt-thread/components/finsh/msh.o
                                                  ./rt-thread/components/libc/compilers/common/ctime.o
                                                  ./rt-thread/components/libc/compilers/common/cstring.o
                                                  ./rt-thread/src/thread.o
                                                  ./rt-thread/src/object.o
                                                  ./rt-thread/src/mem.o
                                                  ./rt-thread/src/device.o
rt_mp_alloc                                       ./rt-thread/src/mempool.o
rt_mp_alloc_sethook                               ./rt-thread/src/mempool.o
rt_mp_create                                      ./rt-thread/src/mempool.o
rt_mp_delete                                      ./rt-thread/src/mempool.o
rt_mp_detach                                      ./rt-thread/src/mempool.o
rt_mp_free                                        ./rt-thread/src/mempool.o
rt_mp_free_sethook                                ./rt-thread/src/mempool.o
rt_mp_init                                        ./rt-thread/src/mempool.o
rt_mq_control                                     ./rt-thread/src/ipc.o
rt_mq_create                                      ./rt-thread/src/ipc.o
rt_mq_delete                                      ./rt-thread/src/ipc.o
rt_mq_detach                                      ./rt-thread/src/ipc.o
rt_mq_init                                        ./rt-thread/src/ipc.o
rt_mq_recv                                        ./rt-thread/src/ipc.o
rt_mq_send                                        ./rt-thread/src/ipc.o
rt_mq_send_wait                                   ./rt-thread/src/ipc.o
rt_mq_urgent                                      ./rt-thread/src/ipc.o
rt_mutex_control                                  ./rt-thread/src/ipc.o
rt_mutex_create                                   ./rt-thread/src/ipc.o
rt_mutex_delete                                   ./rt-thread/src/ipc.o
rt_mutex_detach                                   ./rt-thread/src/ipc.o
                                                  ./rt-thread/components/drivers/ipc/pipe.o
rt_mutex_init                                     ./rt-thread/src/ipc.o
                                                  ./rt-thread/components/dfs/src/dfs.o
                                                  ./rt-thread/components/drivers/ipc/pipe.o
                                                  ./rt-thread/src/kservice.o
rt_mutex_release                                  ./rt-thread/src/ipc.o
                                                  ./rt-thread/components/dfs/src/dfs.o
                                                  ./rt-thread/components/drivers/ipc/pipe.o
                                                  ./rt-thread/src/kservice.o
rt_mutex_take                                     ./rt-thread/src/ipc.o
                                                  ./rt-thread/components/dfs/src/dfs.o
                                                  ./rt-thread/components/drivers/ipc/pipe.o
                                                  ./rt-thread/src/kservice.o
rt_mutex_trytake                                  ./rt-thread/src/ipc.o
rt_object_allocate                                ./rt-thread/src/object.o
                                                  ./rt-thread/src/timer.o
                                                  ./rt-thread/src/thread.o
                                                  ./rt-thread/src/mempool.o
                                                  ./rt-thread/src/ipc.o
rt_object_attach_sethook                          ./rt-thread/src/object.o
rt_object_delete                                  ./rt-thread/src/object.o
                                                  ./rt-thread/src/timer.o
                                                  ./rt-thread/src/thread.o
                                                  ./rt-thread/src/mempool.o
                                                  ./rt-thread/src/ipc.o
                                                  ./rt-thread/src/idle.o
rt_object_detach                                  ./rt-thread/src/object.o
                                                  ./rt-thread/src/timer.o
                                                  ./rt-thread/src/mempool.o
                                                  ./rt-thread/src/mem.o
                                                  ./rt-thread/src/ipc.o
                                                  ./rt-thread/src/idle.o
                                                  ./rt-thread/src/device.o
rt_object_detach_sethook                          ./rt-thread/src/object.o
rt_object_find                                    ./rt-thread/src/object.o
                                                  ./rt-thread/src/thread.o
                                                  ./rt-thread/src/device.o
rt_object_get_information                         ./rt-thread/src/object.o
                                                  ./rt-thread/components/finsh/cmd.o
rt_object_get_length                              ./rt-thread/src/object.o
rt_object_get_pointers                            ./rt-thread/src/object.o
rt_object_get_type                                ./rt-thread/src/object.o
                                                  ./rt-thread/src/timer.o
                                                  ./rt-thread/src/thread.o
                                                  ./rt-thread/src/mempool.o
                                                  ./rt-thread/src/mem.o
                                                  ./rt-thread/src/ipc.o
                                                  ./rt-thread/src/device.o
rt_object_init                                    ./rt-thread/src/object.o
                                                  ./rt-thread/src/timer.o
                                                  ./rt-thread/src/thread.o
                                                  ./rt-thread/src/mempool.o
                                                  ./rt-thread/src/mem.o
                                                  ./rt-thread/src/ipc.o
                                                  ./rt-thread/src/device.o
rt_object_is_systemobject                         ./rt-thread/src/object.o
                                                  ./rt-thread/src/timer.o
                                                  ./rt-thread/src/thread.o
                                                  ./rt-thread/src/mempool.o
                                                  ./rt-thread/src/mem.o
                                                  ./rt-thread/src/ipc.o
                                                  ./rt-thread/src/idle.o
                                                  ./rt-thread/src/device.o
rt_object_put_hook                                ./rt-thread/src/object.o
                                                  ./rt-thread/src/timer.o
                                                  ./rt-thread/src/ipc.o
rt_object_put_sethook                             ./rt-thread/src/object.o
rt_object_take_hook                               ./rt-thread/src/object.o
                                                  ./rt-thread/src/timer.o
                                                  ./rt-thread/src/ipc.o
rt_object_take_sethook                            ./rt-thread/src/object.o
rt_object_trytake_hook                            ./rt-thread/src/object.o
                                                  ./rt-thread/src/ipc.o
rt_object_trytake_sethook                         ./rt-thread/src/object.o
rt_pin_attach_irq                                 ./rt-thread/components/drivers/misc/pin.o
rt_pin_detach_irq                                 ./rt-thread/components/drivers/misc/pin.o
rt_pin_get                                        ./rt-thread/components/drivers/misc/pin.o
rt_pin_irq_enable                                 ./rt-thread/components/drivers/misc/pin.o
rt_pin_mode                                       ./rt-thread/components/drivers/misc/pin.o
                                                  ./applications/main.o
rt_pin_read                                       ./rt-thread/components/drivers/misc/pin.o
rt_pin_write                                      ./rt-thread/components/drivers/misc/pin.o
                                                  ./applications/main.o
rt_pipe_create                                    ./rt-thread/components/drivers/ipc/pipe.o
rt_pipe_delete                                    ./rt-thread/components/drivers/ipc/pipe.o
rt_rbb_blk_alloc                                  ./rt-thread/components/drivers/ipc/ringblk_buf.o
rt_rbb_blk_buf                                    ./rt-thread/components/drivers/ipc/ringblk_buf.o
rt_rbb_blk_free                                   ./rt-thread/components/drivers/ipc/ringblk_buf.o
rt_rbb_blk_get                                    ./rt-thread/components/drivers/ipc/ringblk_buf.o
rt_rbb_blk_put                                    ./rt-thread/components/drivers/ipc/ringblk_buf.o
rt_rbb_blk_queue_buf                              ./rt-thread/components/drivers/ipc/ringblk_buf.o
rt_rbb_blk_queue_free                             ./rt-thread/components/drivers/ipc/ringblk_buf.o
rt_rbb_blk_queue_get                              ./rt-thread/components/drivers/ipc/ringblk_buf.o
rt_rbb_blk_queue_len                              ./rt-thread/components/drivers/ipc/ringblk_buf.o
rt_rbb_blk_size                                   ./rt-thread/components/drivers/ipc/ringblk_buf.o
rt_rbb_create                                     ./rt-thread/components/drivers/ipc/ringblk_buf.o
rt_rbb_destroy                                    ./rt-thread/components/drivers/ipc/ringblk_buf.o
rt_rbb_get_buf_size                               ./rt-thread/components/drivers/ipc/ringblk_buf.o
rt_rbb_init                                       ./rt-thread/components/drivers/ipc/ringblk_buf.o
rt_rbb_next_blk_queue_len                         ./rt-thread/components/drivers/ipc/ringblk_buf.o
rt_realloc                                        ./rt-thread/src/kservice.o
                                                  ./rt-thread/components/dfs/src/dfs.o
                                                  ./rt-thread/components/libc/compilers/newlib/syscalls.o
rt_ringbuffer_create                              ./rt-thread/components/drivers/ipc/ringbuffer.o
                                                  ./rt-thread/components/drivers/ipc/pipe.o
rt_ringbuffer_data_len                            ./rt-thread/components/drivers/ipc/ringbuffer.o
rt_ringbuffer_destroy                             ./rt-thread/components/drivers/ipc/ringbuffer.o
                                                  ./rt-thread/components/drivers/ipc/pipe.o
rt_ringbuffer_get                                 ./rt-thread/components/drivers/ipc/ringbuffer.o
                                                  ./rt-thread/components/drivers/ipc/pipe.o
rt_ringbuffer_getchar                             ./rt-thread/components/drivers/ipc/ringbuffer.o
rt_ringbuffer_init                                ./rt-thread/components/drivers/ipc/ringbuffer.o
rt_ringbuffer_peek                                ./rt-thread/components/drivers/ipc/ringbuffer.o
rt_ringbuffer_put                                 ./rt-thread/components/drivers/ipc/ringbuffer.o
                                                  ./rt-thread/components/drivers/ipc/pipe.o
rt_ringbuffer_put_force                           ./rt-thread/components/drivers/ipc/ringbuffer.o
rt_ringbuffer_putchar                             ./rt-thread/components/drivers/ipc/ringbuffer.o
rt_ringbuffer_putchar_force                       ./rt-thread/components/drivers/ipc/ringbuffer.o
rt_ringbuffer_reset                               ./rt-thread/components/drivers/ipc/ringbuffer.o
rt_schedule                                       ./rt-thread/src/scheduler.o
                                                  ./rt-thread/components/drivers/ipc/workqueue.o
                                                  ./rt-thread/components/drivers/ipc/waitqueue.o
                                                  ./rt-thread/components/drivers/ipc/dataqueue.o
                                                  ./rt-thread/components/drivers/ipc/completion.o
                                                  ./rt-thread/src/timer.o
                                                  ./rt-thread/src/thread.o
                                                  ./rt-thread/src/mempool.o
                                                  ./rt-thread/src/ipc.o
                                                  ./rt-thread/src/clock.o
rt_schedule_insert_thread                         ./rt-thread/src/scheduler.o
                                                  ./rt-thread/src/thread.o
rt_schedule_remove_thread                         ./rt-thread/src/scheduler.o
                                                  ./rt-thread/src/thread.o
rt_scheduler_sethook                              ./rt-thread/src/scheduler.o
rt_scheduler_switch_sethook                       ./rt-thread/src/scheduler.o
rt_sem_control                                    ./rt-thread/src/ipc.o
rt_sem_create                                     ./rt-thread/src/ipc.o
rt_sem_delete                                     ./rt-thread/src/ipc.o
rt_sem_detach                                     ./rt-thread/src/ipc.o
                                                  ./rt-thread/components/drivers/ipc/workqueue.o
rt_sem_init                                       ./rt-thread/src/ipc.o
                                                  ./rt-thread/components/drivers/ipc/workqueue.o
                                                  ./rt-thread/components/finsh/shell.o
rt_sem_release                                    ./rt-thread/src/ipc.o
                                                  ./rt-thread/components/drivers/ipc/workqueue.o
                                                  ./rt-thread/components/finsh/shell.o
rt_sem_take                                       ./rt-thread/src/ipc.o
                                                  ./rt-thread/components/drivers/ipc/workqueue.o
                                                  ./rt-thread/components/finsh/shell.o
rt_sem_trytake                                    ./rt-thread/src/ipc.o
                                                  ./rt-thread/components/drivers/ipc/workqueue.o
rt_set_errno                                      ./rt-thread/src/kservice.o
                                                  ./rt-thread/components/dfs/src/dfs_posix.o
                                                  ./rt-thread/components/dfs/src/dfs_fs.o
                                                  ./rt-thread/components/drivers/ipc/pipe.o
                                                  ./rt-thread/components/drivers/serial/serial.o
                                                  ./rt-thread/components/libc/compilers/common/ctime.o
                                                  ./rt-thread/src/mempool.o
                                                  ./rt-thread/src/device.o
rt_show_version                                   ./rt-thread/src/kservice.o
                                                  ./rt-thread/components/finsh/cmd.o
                                                  ./rt-thread/src/components.o
rt_smem_alloc                                     ./rt-thread/src/mem.o
                                                  ./rt-thread/src/kservice.o
rt_smem_detach                                    ./rt-thread/src/mem.o
rt_smem_free                                      ./rt-thread/src/mem.o
                                                  ./rt-thread/src/kservice.o
rt_smem_init                                      ./rt-thread/src/mem.o
                                                  ./rt-thread/src/kservice.o
rt_smem_realloc                                   ./rt-thread/src/mem.o
                                                  ./rt-thread/src/kservice.o
rt_snprintf                                       ./rt-thread/src/kservice.o
                                                  ./rt-thread/components/dfs/src/dfs.o
                                                  ./rt-thread/components/finsh/msh_file.o
rt_soft_timer_check                               ./rt-thread/src/timer.o
rt_sprintf                                        ./rt-thread/src/kservice.o
                                                  ./rt-thread/components/finsh/msh_file.o
                                                  ./rt-thread/src/idle.o
rt_strdup                                         ./rt-thread/src/kservice.o
                                                  ./rt-thread/components/dfs/src/dfs_file.o
                                                  ./rt-thread/components/dfs/src/dfs.o
rt_strerror                                       ./rt-thread/src/kservice.o
                                                  ./rt-thread/components/finsh/cmd.o
rt_strnlen                                        ./rt-thread/src/kservice.o
rt_system_heap_init                               ./rt-thread/src/kservice.o
                                                  ./libraries/Drivers/drv_common.o
rt_system_scheduler_init                          ./rt-thread/src/scheduler.o
                                                  ./rt-thread/src/components.o
rt_system_scheduler_start                         ./rt-thread/src/scheduler.o
                                                  ./rt-thread/src/components.o
rt_system_timer_init                              ./rt-thread/src/timer.o
                                                  ./rt-thread/src/components.o
rt_system_timer_thread_init                       ./rt-thread/src/timer.o
                                                  ./rt-thread/src/components.o
rt_thread_control                                 ./rt-thread/src/thread.o
                                                  ./rt-thread/components/libc/compilers/common/cstdlib.o
                                                  ./rt-thread/src/ipc.o
rt_thread_create                                  ./rt-thread/src/thread.o
                                                  ./rt-thread/components/drivers/ipc/workqueue.o
                                                  ./rt-thread/components/finsh/shell.o
                                                  ./rt-thread/src/components.o
rt_thread_defunct_dequeue                         ./rt-thread/src/idle.o
rt_thread_defunct_enqueue                         ./rt-thread/src/idle.o
                                                  ./rt-thread/src/thread.o
rt_thread_delay                                   ./rt-thread/src/thread.o
                                                  ./rt-thread/src/timer.o
rt_thread_delay_until                             ./rt-thread/src/thread.o
rt_thread_delete                                  ./rt-thread/src/thread.o
                                                  ./rt-thread/components/drivers/ipc/workqueue.o
rt_thread_detach                                  ./rt-thread/src/thread.o
rt_thread_find                                    ./rt-thread/src/thread.o
rt_thread_idle_delhook                            ./rt-thread/src/idle.o
rt_thread_idle_gethandler                         ./rt-thread/src/idle.o
rt_thread_idle_init                               ./rt-thread/src/idle.o
                                                  ./rt-thread/src/components.o
rt_thread_idle_sethook                            ./rt-thread/src/idle.o
rt_thread_init                                    ./rt-thread/src/thread.o
                                                  ./rt-thread/src/timer.o
                                                  ./rt-thread/src/idle.o
rt_thread_inited_sethook                          ./rt-thread/src/thread.o
rt_thread_mdelay                                  ./rt-thread/src/thread.o
                                                  ./applications/main.o
rt_thread_priority_table                          ./rt-thread/src/scheduler.o
rt_thread_ready_priority_group                    ./rt-thread/src/scheduler.o
rt_thread_resume                                  ./rt-thread/src/thread.o
                                                  ./rt-thread/components/drivers/ipc/workqueue.o
                                                  ./rt-thread/components/drivers/ipc/waitqueue.o
                                                  ./rt-thread/components/drivers/ipc/dataqueue.o
                                                  ./rt-thread/components/drivers/ipc/completion.o
                                                  ./rt-thread/src/timer.o
                                                  ./rt-thread/src/mempool.o
                                                  ./rt-thread/src/ipc.o
rt_thread_resume_sethook                          ./rt-thread/src/thread.o
rt_thread_self                                    ./rt-thread/src/thread.o
                                                  ./rt-thread/components/drivers/ipc/workqueue.o
                                                  ./rt-thread/components/drivers/ipc/waitqueue.o
                                                  ./rt-thread/components/drivers/ipc/dataqueue.o
                                                  ./rt-thread/components/drivers/ipc/completion.o
                                                  ./rt-thread/components/libc/compilers/common/cstdlib.o
                                                  ./rt-thread/libcpu/arm/cortex-m4/cpuport.o
                                                  ./rt-thread/src/timer.o
                                                  ./rt-thread/src/mempool.o
                                                  ./rt-thread/src/kservice.o
                                                  ./rt-thread/src/ipc.o
                                                  ./rt-thread/src/clock.o
rt_thread_sleep                                   ./rt-thread/src/thread.o
rt_thread_startup                                 ./rt-thread/src/thread.o
                                                  ./rt-thread/components/drivers/ipc/workqueue.o
                                                  ./rt-thread/components/finsh/shell.o
                                                  ./rt-thread/src/timer.o
                                                  ./rt-thread/src/idle.o
                                                  ./rt-thread/src/components.o
rt_thread_suspend                                 ./rt-thread/src/thread.o
                                                  ./rt-thread/components/drivers/ipc/workqueue.o
                                                  ./rt-thread/components/drivers/ipc/waitqueue.o
                                                  ./rt-thread/components/drivers/ipc/dataqueue.o
                                                  ./rt-thread/components/drivers/ipc/completion.o
                                                  ./rt-thread/src/timer.o
                                                  ./rt-thread/src/mempool.o
                                                  ./rt-thread/src/ipc.o
rt_thread_suspend_sethook                         ./rt-thread/src/thread.o
rt_thread_switch_interrupt_flag                   ./rt-thread/libcpu/arm/cortex-m4/cpuport.o
                                                  ./rt-thread/libcpu/arm/cortex-m4/context_gcc.o
rt_thread_yield                                   ./rt-thread/src/thread.o
rt_tick_from_millisecond                          ./rt-thread/src/clock.o
                                                  ./rt-thread/components/drivers/ipc/waitqueue.o
                                                  ./rt-thread/src/thread.o
rt_tick_get                                       ./rt-thread/src/clock.o
                                                  ./rt-thread/components/finsh/cmd.o
                                                  ./rt-thread/components/libc/compilers/common/ctime.o
                                                  ./rt-thread/src/timer.o
                                                  ./rt-thread/src/thread.o
                                                  ./rt-thread/src/mempool.o
                                                  ./rt-thread/src/ipc.o
rt_tick_get_millisecond                           ./rt-thread/src/clock.o
rt_tick_increase                                  ./rt-thread/src/clock.o
                                                  ./libraries/Drivers/drv_common.o
rt_tick_set                                       ./rt-thread/src/clock.o
rt_tick_sethook                                   ./rt-thread/src/clock.o
rt_timer_check                                    ./rt-thread/src/timer.o
                                                  ./rt-thread/src/clock.o
rt_timer_control                                  ./rt-thread/src/timer.o
                                                  ./rt-thread/components/drivers/ipc/workqueue.o
                                                  ./rt-thread/components/drivers/ipc/waitqueue.o
                                                  ./rt-thread/components/drivers/ipc/dataqueue.o
                                                  ./rt-thread/components/drivers/ipc/completion.o
                                                  ./rt-thread/src/thread.o
                                                  ./rt-thread/src/mempool.o
                                                  ./rt-thread/src/ipc.o
rt_timer_create                                   ./rt-thread/src/timer.o
rt_timer_delete                                   ./rt-thread/src/timer.o
rt_timer_detach                                   ./rt-thread/src/timer.o
                                                  ./rt-thread/components/drivers/ipc/workqueue.o
                                                  ./rt-thread/src/thread.o
rt_timer_enter_sethook                            ./rt-thread/src/timer.o
rt_timer_exit_sethook                             ./rt-thread/src/timer.o
rt_timer_init                                     ./rt-thread/src/timer.o
                                                  ./rt-thread/components/drivers/ipc/workqueue.o
                                                  ./rt-thread/src/thread.o
rt_timer_next_timeout_tick                        ./rt-thread/src/timer.o
rt_timer_start                                    ./rt-thread/src/timer.o
                                                  ./rt-thread/components/drivers/ipc/workqueue.o
                                                  ./rt-thread/components/drivers/ipc/waitqueue.o
                                                  ./rt-thread/components/drivers/ipc/dataqueue.o
                                                  ./rt-thread/components/drivers/ipc/completion.o
                                                  ./rt-thread/src/thread.o
                                                  ./rt-thread/src/mempool.o
                                                  ./rt-thread/src/ipc.o
rt_timer_stop                                     ./rt-thread/src/timer.o
                                                  ./rt-thread/components/drivers/ipc/workqueue.o
                                                  ./rt-thread/src/thread.o
rt_vsnprintf                                      ./rt-thread/src/kservice.o
rt_vsprintf                                       ./rt-thread/src/kservice.o
rt_work_init                                      ./rt-thread/components/drivers/ipc/workqueue.o
rt_workqueue_cancel_all_work                      ./rt-thread/components/drivers/ipc/workqueue.o
rt_workqueue_cancel_work                          ./rt-thread/components/drivers/ipc/workqueue.o
rt_workqueue_cancel_work_sync                     ./rt-thread/components/drivers/ipc/workqueue.o
rt_workqueue_create                               ./rt-thread/components/drivers/ipc/workqueue.o
rt_workqueue_destroy                              ./rt-thread/components/drivers/ipc/workqueue.o
rt_workqueue_dowork                               ./rt-thread/components/drivers/ipc/workqueue.o
rt_workqueue_submit_work                          ./rt-thread/components/drivers/ipc/workqueue.o
rt_workqueue_urgent_work                          ./rt-thread/components/drivers/ipc/workqueue.o
rt_wqueue_add                                     ./rt-thread/components/drivers/ipc/waitqueue.o
rt_wqueue_remove                                  ./rt-thread/components/drivers/ipc/waitqueue.o
rt_wqueue_wait                                    ./rt-thread/components/drivers/ipc/waitqueue.o
rt_wqueue_wakeup                                  ./rt-thread/components/drivers/ipc/waitqueue.o
rtthread_startup                                  ./rt-thread/src/components.o
seekdir                                           ./rt-thread/components/dfs/src/dfs_posix.o
setlocale                                         c:/rt-threadstudio/repo/extract/toolchain_support_packages/arm/gnu_tools_for_arm_embedded_processors/5.4.1/bin/../lib/gcc/arm-none-eabi/5.4.1/../../../../arm-none-eabi/lib/armv7e-m/fpu\libc.a(lib_a-locale.o)
settimeofday                                      ./rt-thread/components/libc/compilers/common/ctime.o
shell                                             ./rt-thread/components/finsh/shell.o
software_init_hook                                c:/rt-threadstudio/repo/extract/toolchain_support_packages/arm/gnu_tools_for_arm_embedded_processors/5.4.1/bin/../lib/gcc/arm-none-eabi/5.4.1/../../../../arm-none-eabi/lib/armv7e-m/fpu/crt0.o
stat                                              ./rt-thread/components/dfs/src/dfs_posix.o
                                                  ./rt-thread/components/finsh/msh_file.o
                                                  ./rt-thread/components/libc/compilers/newlib/syscalls.o
statfs                                            ./rt-thread/components/dfs/src/dfs_posix.o
stime                                             ./rt-thread/components/libc/compilers/common/ctime.o
strcasecmp                                        ./rt-thread/components/libc/compilers/common/cstring.o
strchr                                            c:/rt-threadstudio/repo/extract/toolchain_support_packages/arm/gnu_tools_for_arm_embedded_processors/5.4.1/bin/../lib/gcc/arm-none-eabi/5.4.1/../../../../arm-none-eabi/lib/armv7e-m/fpu\libc.a(lib_a-strchr.o)
                                                  c:/rt-threadstudio/repo/extract/toolchain_support_packages/arm/gnu_tools_for_arm_embedded_processors/5.4.1/bin/../lib/gcc/arm-none-eabi/5.4.1/../../../../arm-none-eabi/lib/armv7e-m/fpu\libc.a(lib_a-strstr.o)
                                                  c:/rt-threadstudio/repo/extract/toolchain_support_packages/arm/gnu_tools_for_arm_embedded_processors/5.4.1/bin/../lib/gcc/arm-none-eabi/5.4.1/../../../../arm-none-eabi/lib/armv7e-m/fpu\libc.a(lib_a-strrchr.o)
                                                  ./rt-thread/components/libc/compilers/common/cstring.o
strchrnul                                         ./rt-thread/components/libc/compilers/common/cstring.o
strcmp                                            c:/rt-threadstudio/repo/extract/toolchain_support_packages/arm/gnu_tools_for_arm_embedded_processors/5.4.1/bin/../lib/gcc/arm-none-eabi/5.4.1/../../../../arm-none-eabi/lib/armv7e-m/fpu\libc.a(lib_a-strcmp.o)
                                                  c:/rt-threadstudio/repo/extract/toolchain_support_packages/arm/gnu_tools_for_arm_embedded_processors/5.4.1/bin/../lib/gcc/arm-none-eabi/5.4.1/../../../../arm-none-eabi/lib/armv7e-m/fpu\libc.a(lib_a-locale.o)
                                                  ./rt-thread/components/dfs/src/dfs_fs.o
                                                  ./rt-thread/components/dfs/src/dfs_file.o
                                                  ./rt-thread/components/dfs/src/dfs.o
                                                  ./rt-thread/components/drivers/misc/pin.o
                                                  ./rt-thread/components/finsh/msh_file.o
                                                  ./rt-thread/components/finsh/cmd.o
strcpy                                            c:/rt-threadstudio/repo/extract/toolchain_support_packages/arm/gnu_tools_for_arm_embedded_processors/5.4.1/bin/../lib/gcc/arm-none-eabi/5.4.1/../../../../arm-none-eabi/lib/armv7e-m/fpu\libc.a(lib_a-strcpy.o)
                                                  ./rt-thread/components/finsh/shell.o
                                                  ./rt-thread/components/finsh/msh.o
                                                  ./rt-thread/components/libc/compilers/common/cstring.o
strdup                                            ./rt-thread/components/libc/compilers/common/cstring.o
strlen                                            c:/rt-threadstudio/repo/extract/toolchain_support_packages/arm/gnu_tools_for_arm_embedded_processors/5.4.1/bin/../lib/gcc/arm-none-eabi/5.4.1/../../../../arm-none-eabi/lib/armv7e-m/fpu\libc.a(lib_a-strlen.o)
                                                  ./libraries/Drivers/drv_gpio.o
                                                  ./rt-thread/components/dfs/src/dfs_posix.o
                                                  ./rt-thread/components/dfs/src/dfs_fs.o
                                                  ./rt-thread/components/dfs/src/dfs.o
                                                  ./rt-thread/components/drivers/misc/pin.o
                                                  ./rt-thread/components/finsh/shell.o
                                                  ./rt-thread/components/finsh/msh_file.o
                                                  ./rt-thread/components/finsh/msh.o
                                                  ./rt-thread/components/libc/compilers/common/ctime.o
                                                  ./rt-thread/components/libc/compilers/common/cstring.o
                                                  ./rt-thread/components/libc/compilers/common/cstdlib.o
                                                  ./rt-thread/src/kservice.o
strncasecmp                                       ./rt-thread/components/libc/compilers/common/cstring.o
strncat                                           c:/rt-threadstudio/repo/extract/toolchain_support_packages/arm/gnu_tools_for_arm_embedded_processors/5.4.1/bin/../lib/gcc/arm-none-eabi/5.4.1/../../../../arm-none-eabi/lib/armv7e-m/fpu\libc.a(lib_a-strncat.o)
                                                  ./rt-thread/components/drivers/misc/pin.o
strncmp                                           c:/rt-threadstudio/repo/extract/toolchain_support_packages/arm/gnu_tools_for_arm_embedded_processors/5.4.1/bin/../lib/gcc/arm-none-eabi/5.4.1/../../../../arm-none-eabi/lib/armv7e-m/fpu\libc.a(lib_a-strncmp.o)
                                                  ./rt-thread/components/dfs/src/dfs_fs.o
                                                  ./rt-thread/components/finsh/msh.o
                                                  ./rt-thread/src/object.o
strncpy                                           c:/rt-threadstudio/repo/extract/toolchain_support_packages/arm/gnu_tools_for_arm_embedded_processors/5.4.1/bin/../lib/gcc/arm-none-eabi/5.4.1/../../../../arm-none-eabi/lib/armv7e-m/fpu\libc.a(lib_a-strncpy.o)
                                                  ./rt-thread/components/dfs/src/dfs_posix.o
                                                  ./rt-thread/components/finsh/shell.o
                                                  ./rt-thread/components/finsh/msh.o
                                                  ./rt-thread/src/object.o
strndup                                           ./rt-thread/components/libc/compilers/common/cstring.o
strnlen                                           ./rt-thread/components/libc/compilers/common/cstring.o
strrchr                                           c:/rt-threadstudio/repo/extract/toolchain_support_packages/arm/gnu_tools_for_arm_embedded_processors/5.4.1/bin/../lib/gcc/arm-none-eabi/5.4.1/../../../../arm-none-eabi/lib/armv7e-m/fpu\libc.a(lib_a-strrchr.o)
                                                  ./rt-thread/components/dfs/src/dfs_file.o
                                                  ./rt-thread/components/libc/compilers/common/cstring.o
strstr                                            c:/rt-threadstudio/repo/extract/toolchain_support_packages/arm/gnu_tools_for_arm_embedded_processors/5.4.1/bin/../lib/gcc/arm-none-eabi/5.4.1/../../../../arm-none-eabi/lib/armv7e-m/fpu\libc.a(lib_a-strstr.o)
                                                  ./rt-thread/components/finsh/msh_file.o
strtok_r                                          ./rt-thread/components/libc/compilers/common/cstring.o
strtol                                            c:/rt-threadstudio/repo/extract/toolchain_support_packages/arm/gnu_tools_for_arm_embedded_processors/5.4.1/bin/../lib/gcc/arm-none-eabi/5.4.1/../../../../arm-none-eabi/lib/armv7e-m/fpu\libc.a(lib_a-strtol.o)
                                                  c:/rt-threadstudio/repo/extract/toolchain_support_packages/arm/gnu_tools_for_arm_embedded_processors/5.4.1/bin/../lib/gcc/arm-none-eabi/5.4.1/../../../../arm-none-eabi/lib/armv7e-m/fpu\libc.a(lib_a-atoi.o)
strtol_l                                          c:/rt-threadstudio/repo/extract/toolchain_support_packages/arm/gnu_tools_for_arm_embedded_processors/5.4.1/bin/../lib/gcc/arm-none-eabi/5.4.1/../../../../arm-none-eabi/lib/armv7e-m/fpu\libc.a(lib_a-strtol.o)
system                                            ./rt-thread/components/libc/compilers/common/cstdlib.o
telldir                                           ./rt-thread/components/dfs/src/dfs_posix.o
time                                              ./rt-thread/components/libc/compilers/common/ctime.o
timegm                                            ./rt-thread/components/libc/compilers/common/ctime.o
toascii                                           ./rt-thread/components/libc/compilers/common/cctype.o
tz_get                                            ./rt-thread/components/libc/compilers/common/ctime.o
tz_is_dst                                         ./rt-thread/components/libc/compilers/common/ctime.o
tz_set                                            ./rt-thread/components/libc/compilers/common/ctime.o
ultoa                                             ./rt-thread/components/libc/compilers/common/cstdlib.o
umask                                             ./rt-thread/components/libc/compilers/newlib/syscalls.o
unlink                                            ./rt-thread/components/dfs/src/dfs_posix.o
                                                  ./rt-thread/components/finsh/msh_file.o
                                                  ./rt-thread/components/libc/compilers/newlib/syscalls.o
utoa                                              ./rt-thread/components/libc/compilers/common/cstdlib.o
version                                           ./rt-thread/components/finsh/cmd.o
wcswidth                                          ./rt-thread/components/libc/compilers/common/cwchar.o
wcwidth                                           ./rt-thread/components/libc/compilers/common/cwchar.o
working_directory                                 ./rt-thread/components/dfs/src/dfs.o
                                                  ./rt-thread/components/dfs/src/dfs_posix.o
                                                  ./rt-thread/components/dfs/src/dfs_file.o
                                                  ./rt-thread/components/finsh/msh_file.o
write                                             ./rt-thread/components/dfs/src/dfs_posix.o
                                                  ./rt-thread/components/finsh/msh_file.o
                                                  ./rt-thread/components/libc/compilers/newlib/syscalls.o
